In archive libgcc.a:

_mulsi3.o:     file format a.out-zero-big


Disassembly of section .text:

00000000 <___mulsi3>:
   0:	302f 0004      	movew %sp@(4),%d0
   4:	c0ef 000a      	muluw %sp@(10),%d0
   8:	322f 0006      	movew %sp@(6),%d1
   c:	c2ef 0008      	muluw %sp@(8),%d1
  10:	d041           	addw %d1,%d0
  12:	4840           	swap %d0
  14:	4240           	clrw %d0
  16:	322f 0006      	movew %sp@(6),%d1
  1a:	c2ef 000a      	muluw %sp@(10),%d1
  1e:	d081           	addl %d1,%d0
  20:	4e75           	rts
	...

_udivsi3.o:     file format a.out-zero-big


Disassembly of section .text:

00000000 <___udivsi3>:
   0:	2f02           	movel %d2,%sp@-
   2:	222f 000c      	movel %sp@(12),%d1
   6:	202f 0008      	movel %sp@(8),%d0
   a:	0c81 0001 0000 	cmpil #65536,%d1
  10:	6416           	bccs 28 <___udivsi3+0x28>
  12:	2400           	movel %d0,%d2
  14:	4242           	clrw %d2
  16:	4842           	swap %d2
  18:	84c1           	divuw %d1,%d2
  1a:	3002           	movew %d2,%d0
  1c:	4840           	swap %d0
  1e:	342f 000a      	movew %sp@(10),%d2
  22:	84c1           	divuw %d1,%d2
  24:	3002           	movew %d2,%d0
  26:	6030           	bras 58 <___udivsi3+0x58>
  28:	2401           	movel %d1,%d2
  2a:	e289           	lsrl #1,%d1
  2c:	e288           	lsrl #1,%d0
  2e:	0c81 0001 0000 	cmpil #65536,%d1
  34:	64f4           	bccs 2a <___udivsi3+0x2a>
  36:	80c1           	divuw %d1,%d0
  38:	0280 0000 ffff 	andil #65535,%d0
  3e:	2202           	movel %d2,%d1
  40:	c2c0           	muluw %d0,%d1
  42:	4842           	swap %d2
  44:	c4c0           	muluw %d0,%d2
  46:	4842           	swap %d2
  48:	4a42           	tstw %d2
  4a:	660a           	bnes 56 <___udivsi3+0x56>
  4c:	d282           	addl %d2,%d1
  4e:	6506           	bcss 56 <___udivsi3+0x56>
  50:	b2af 0008      	cmpl %sp@(8),%d1
  54:	6302           	blss 58 <___udivsi3+0x58>
  56:	5380           	subql #1,%d0
  58:	241f           	movel %sp@+,%d2
  5a:	4e75           	rts

_divsi3.o:     file format a.out-zero-big


Disassembly of section .text:

00000000 <___divsi3>:
   0:	2f02           	movel %d2,%sp@-
   2:	7401           	moveq #1,%d2
   4:	222f 000c      	movel %sp@(12),%d1
   8:	6a04           	bpls e <___divsi3+0xe>
   a:	4481           	negl %d1
   c:	4402           	negb %d2
   e:	202f 0008      	movel %sp@(8),%d0
  12:	6a04           	bpls 18 <___divsi3+0x18>
  14:	4480           	negl %d0
  16:	4402           	negb %d2
  18:	2f01           	movel %d1,%sp@-
  1a:	2f00           	movel %d0,%sp@-
  1c:	4eb9 0000 0000 	jsr 0 <___divsi3>
  22:	508f           	addql #8,%sp
  24:	4a02           	tstb %d2
  26:	6a02           	bpls 2a <___divsi3+0x2a>
  28:	4480           	negl %d0
  2a:	241f           	movel %sp@+,%d2
  2c:	4e75           	rts
	...

_umodsi3.o:     file format a.out-zero-big


Disassembly of section .text:

00000000 <___umodsi3>:
   0:	222f 0008      	movel %sp@(8),%d1
   4:	202f 0004      	movel %sp@(4),%d0
   8:	2f01           	movel %d1,%sp@-
   a:	2f00           	movel %d0,%sp@-
   c:	4eb9 0000 0000 	jsr 0 <___umodsi3>
  12:	508f           	addql #8,%sp
  14:	222f 0008      	movel %sp@(8),%d1
  18:	2f01           	movel %d1,%sp@-
  1a:	2f00           	movel %d0,%sp@-
  1c:	4eb9 0000 0000 	jsr 0 <___umodsi3>
  22:	508f           	addql #8,%sp
  24:	222f 0004      	movel %sp@(4),%d1
  28:	9280           	subl %d0,%d1
  2a:	2001           	movel %d1,%d0
  2c:	4e75           	rts
	...

_modsi3.o:     file format a.out-zero-big


Disassembly of section .text:

00000000 <___modsi3>:
   0:	222f 0008      	movel %sp@(8),%d1
   4:	202f 0004      	movel %sp@(4),%d0
   8:	2f01           	movel %d1,%sp@-
   a:	2f00           	movel %d0,%sp@-
   c:	4eb9 0000 0000 	jsr 0 <___modsi3>
  12:	508f           	addql #8,%sp
  14:	222f 0008      	movel %sp@(8),%d1
  18:	2f01           	movel %d1,%sp@-
  1a:	2f00           	movel %d0,%sp@-
  1c:	4eb9 0000 0000 	jsr 0 <___modsi3>
  22:	508f           	addql #8,%sp
  24:	222f 0004      	movel %sp@(4),%d1
  28:	9280           	subl %d0,%d1
  2a:	2001           	movel %d1,%d0
  2c:	4e75           	rts
	...

_double.o:     file format a.out-zero-big


Disassembly of section .text:

00000000 <___subdf3-0x5a>:
   0:	8087           	orl %d7,%d0
   2:	3e3c 0003      	movew #3,%d7
   6:	7c02           	moveq #2,%d6
   8:	4ef9 0000 0000 	jmp 0 <___subdf3-0x5a>
   e:	203c 7ff0 0000 	movel #2146435072,%d0
  14:	7200           	moveq #0,%d1
  16:	8087           	orl %d7,%d0
  18:	3e3c 0005      	movew #5,%d7
  1c:	7c02           	moveq #2,%d6
  1e:	4ef9 0000 0000 	jmp 0 <___subdf3-0x5a>
  24:	7000           	moveq #0,%d0
  26:	2200           	movel %d0,%d1
  28:	3e3c 0003      	movew #3,%d7
  2c:	7c02           	moveq #2,%d6
  2e:	4ef9 0000 0000 	jmp 0 <___subdf3-0x5a>
  34:	70ff           	moveq #-1,%d0
  36:	2200           	movel %d0,%d1
  38:	3e3c 0011      	movew #17,%d7
  3c:	7c02           	moveq #2,%d6
  3e:	4ef9 0000 0000 	jmp 0 <___subdf3-0x5a>
  44:	203c 7ff0 0000 	movel #2146435072,%d0
  4a:	7200           	moveq #0,%d1
  4c:	8087           	orl %d7,%d0
  4e:	3e3c 0009      	movew #9,%d7
  52:	7c02           	moveq #2,%d6
  54:	4ef9 0000 0000 	jmp 0 <___subdf3-0x5a>

0000005a <___subdf3>:
  5a:	086f 001f 000c 	bchg #31,%sp@(12)

00000060 <___adddf3>:
  60:	4e56 0000      	linkw %fp,#0
  64:	48e7 3f00      	moveml %d2-%d7,%sp@-
  68:	202e 0008      	movel %fp@(8),%d0
  6c:	222e 000c      	movel %fp@(12),%d1
  70:	242e 0010      	movel %fp@(16),%d2
  74:	262e 0014      	movel %fp@(20),%d3
  78:	2e00           	movel %d0,%d7
  7a:	d281           	addl %d1,%d1
  7c:	d180           	addxl %d0,%d0
  7e:	6700 0286      	beqw 306 <___adddf3+0x2a6>
  82:	2c02           	movel %d2,%d6
  84:	d683           	addl %d3,%d3
  86:	d582           	addxl %d2,%d2
  88:	6700 029a      	beqw 324 <___adddf3+0x2c4>
  8c:	0287 8000 0000 	andil #-2147483648,%d7
  92:	4846           	swap %d6
  94:	0246 8000      	andiw #-32768,%d6
  98:	8e46           	orw %d6,%d7
  9a:	2047           	moveal %d7,%a0
  9c:	2c3c 001f ffff 	movel #2097151,%d6
  a2:	2e3c 0020 0000 	movel #2097152,%d7
  a8:	2800           	movel %d0,%d4
  aa:	c086           	andl %d6,%d0
  ac:	4686           	notl %d6
  ae:	c886           	andl %d6,%d4
  b0:	6700 0246      	beqw 2f8 <___adddf3+0x298>
  b4:	b886           	cmpl %d6,%d4
  b6:	6700 02ca      	beqw 382 <___adddf3+0x322>
  ba:	8087           	orl %d7,%d0
  bc:	4844           	swap %d4
  be:	ea4c           	lsrw #5,%d4
  c0:	2a02           	movel %d2,%d5
  c2:	ca86           	andl %d6,%d5
  c4:	6700 0238      	beqw 2fe <___adddf3+0x29e>
  c8:	ba86           	cmpl %d6,%d5
  ca:	6700 02b6      	beqw 382 <___adddf3+0x322>
  ce:	4686           	notl %d6
  d0:	c486           	andl %d6,%d2
  d2:	8487           	orl %d7,%d2
  d4:	4845           	swap %d5
  d6:	ea4d           	lsrw #5,%d5
  d8:	48e7 0030      	moveml %a2-%a3,%sp@-
  dc:	2444           	moveal %d4,%a2
  de:	2645           	moveal %d5,%a3
  e0:	7e00           	moveq #0,%d7
  e2:	2c07           	movel %d7,%d6
  e4:	2a03           	movel %d3,%d5
  e6:	2802           	movel %d2,%d4
  e8:	2607           	movel %d7,%d3
  ea:	2407           	movel %d7,%d2
  ec:	c98a           	exg %d4,%a2
  ee:	cb8b           	exg %d5,%a3
  f0:	ba44           	cmpw %d4,%d5
  f2:	6700 00cc      	beqw 1c0 <___adddf3+0x160>
  f6:	6200 0064      	bhiw 15c <___adddf3+0xfc>
  fa:	3404           	movew %d4,%d2
  fc:	9445           	subw %d5,%d2
  fe:	c98a           	exg %d4,%a2
 100:	cb8b           	exg %d5,%a3
 102:	0c42 0037      	cmpiw #55,%d2
 106:	6c00 01d2      	bgew 2da <___adddf3+0x27a>
 10a:	0c42 0020      	cmpiw #32,%d2
 10e:	6c00 0022      	bgew 132 <___adddf3+0xd2>
 112:	0c42 0010      	cmpiw #16,%d2
 116:	6c00 002a      	bgew 142 <___adddf3+0xe2>
 11a:	6000 000a      	braw 126 <___adddf3+0xc6>
 11e:	e28c           	lsrl #1,%d4
 120:	e295           	roxrl #1,%d5
 122:	e296           	roxrl #1,%d6
 124:	e297           	roxrl #1,%d7
 126:	51ca fff6      	dbf %d2,11e <___adddf3+0xbe>
 12a:	7400           	moveq #0,%d2
 12c:	2602           	movel %d2,%d3
 12e:	6000 0094      	braw 1c4 <___adddf3+0x164>
 132:	2e06           	movel %d6,%d7
 134:	2c05           	movel %d5,%d6
 136:	2a04           	movel %d4,%d5
 138:	7800           	moveq #0,%d4
 13a:	0442 0020      	subiw #32,%d2
 13e:	6000 ffd2      	braw 112 <___adddf3+0xb2>
 142:	3e06           	movew %d6,%d7
 144:	4847           	swap %d7
 146:	3c05           	movew %d5,%d6
 148:	4846           	swap %d6
 14a:	3a04           	movew %d4,%d5
 14c:	4845           	swap %d5
 14e:	383c 0000      	movew #0,%d4
 152:	4844           	swap %d4
 154:	0442 0010      	subiw #16,%d2
 158:	6000 ffcc      	braw 126 <___adddf3+0xc6>
 15c:	c945           	exg %d4,%d5
 15e:	3c04           	movew %d4,%d6
 160:	9c45           	subw %d5,%d6
 162:	c98a           	exg %d4,%a2
 164:	cb8b           	exg %d5,%a3
 166:	0c46 0037      	cmpiw #55,%d6
 16a:	6c00 0150      	bgew 2bc <___adddf3+0x25c>
 16e:	0c46 0020      	cmpiw #32,%d6
 172:	6c00 0022      	bgew 196 <___adddf3+0x136>
 176:	0c46 0010      	cmpiw #16,%d6
 17a:	6c00 002a      	bgew 1a6 <___adddf3+0x146>
 17e:	6000 000a      	braw 18a <___adddf3+0x12a>
 182:	e288           	lsrl #1,%d0
 184:	e291           	roxrl #1,%d1
 186:	e292           	roxrl #1,%d2
 188:	e293           	roxrl #1,%d3
 18a:	51ce fff6      	dbf %d6,182 <___adddf3+0x122>
 18e:	7e00           	moveq #0,%d7
 190:	2c07           	movel %d7,%d6
 192:	6000 0030      	braw 1c4 <___adddf3+0x164>
 196:	2602           	movel %d2,%d3
 198:	2401           	movel %d1,%d2
 19a:	2200           	movel %d0,%d1
 19c:	7000           	moveq #0,%d0
 19e:	0446 0020      	subiw #32,%d6
 1a2:	6000 ffd2      	braw 176 <___adddf3+0x116>
 1a6:	3602           	movew %d2,%d3
 1a8:	4843           	swap %d3
 1aa:	3401           	movew %d1,%d2
 1ac:	4842           	swap %d2
 1ae:	3200           	movew %d0,%d1
 1b0:	4841           	swap %d1
 1b2:	303c 0000      	movew #0,%d0
 1b6:	4840           	swap %d0
 1b8:	0446 0010      	subiw #16,%d6
 1bc:	6000 ffcc      	braw 18a <___adddf3+0x12a>
 1c0:	c98a           	exg %d4,%a2
 1c2:	cb8b           	exg %d5,%a3
 1c4:	cf88           	exg %d7,%a0
 1c6:	cd8b           	exg %d6,%a3
 1c8:	2c07           	movel %d7,%d6
 1ca:	3e3c 0000      	movew #0,%d7
 1ce:	4846           	swap %d6
 1d0:	3c3c 0000      	movew #0,%d6
 1d4:	bf86           	eorl %d7,%d6
 1d6:	6b00 006e      	bmiw 246 <___adddf3+0x1e6>
 1da:	cf88           	exg %d7,%a0
 1dc:	cd8b           	exg %d6,%a3
 1de:	d687           	addl %d7,%d3
 1e0:	d586           	addxl %d6,%d2
 1e2:	d385           	addxl %d5,%d1
 1e4:	d184           	addxl %d4,%d0
 1e6:	280a           	movel %a2,%d4
 1e8:	2e08           	movel %a0,%d7
 1ea:	0287 8000 0000 	andil #-2147483648,%d7
 1f0:	4cdf 0c00      	moveml %sp@+,%a2-%a3
 1f4:	0800 0036      	btst #54,%d0
 1f8:	6700 000c      	beqw 206 <___adddf3+0x1a6>
 1fc:	e288           	lsrl #1,%d0
 1fe:	e291           	roxrl #1,%d1
 200:	e292           	roxrl #1,%d2
 202:	e293           	roxrl #1,%d3
 204:	5244           	addqw #1,%d4
 206:	41fa 0020      	lea %pc@(228 <___adddf3+0x1c8>),%a0
 20a:	43f9 0000 0000 	lea 0 <___subdf3-0x5a>,%a1
 210:	3c29 0006      	movew %a1@(6),%d6
 214:	6700 0750      	beqw 966 <___cmpdf2+0x20>
 218:	0c46 0002      	cmpiw #2,%d6
 21c:	6200 07ac      	bhiw 9ca <___cmpdf2+0x84>
 220:	6d00 07a8      	bltw 9ca <___cmpdf2+0x84>
 224:	6000 07a4      	braw 9ca <___cmpdf2+0x84>
 228:	0c44 07ff      	cmpiw #2047,%d4
 22c:	6c00 0012      	bgew 240 <___adddf3+0x1e0>
 230:	0880 0034      	bclr #52,%d0
 234:	e94c           	lslw #4,%d4
 236:	4840           	swap %d0
 238:	8044           	orw %d4,%d0
 23a:	4840           	swap %d0
 23c:	6000 0128      	braw 366 <___adddf3+0x306>
 240:	7a01           	moveq #1,%d5
 242:	6000 fdca      	braw e <___subdf3-0x4c>
 246:	cf88           	exg %d7,%a0
 248:	cd8b           	exg %d6,%a3
 24a:	9687           	subl %d7,%d3
 24c:	9586           	subxl %d6,%d2
 24e:	9385           	subxl %d5,%d1
 250:	9184           	subxl %d4,%d0
 252:	6700 010e      	beqw 362 <___adddf3+0x302>
 256:	6a00 0012      	bplw 26a <___adddf3+0x20a>
 25a:	2e08           	movel %a0,%d7
 25c:	0847 001f      	bchg #31,%d7
 260:	2047           	moveal %d7,%a0
 262:	4483           	negl %d3
 264:	4082           	negxl %d2
 266:	4081           	negxl %d1
 268:	4080           	negxl %d0
 26a:	280a           	movel %a2,%d4
 26c:	2e08           	movel %a0,%d7
 26e:	0287 8000 0000 	andil #-2147483648,%d7
 274:	4cdf 0c00      	moveml %sp@+,%a2-%a3
 278:	0800 0036      	btst #54,%d0
 27c:	6700 000c      	beqw 28a <___adddf3+0x22a>
 280:	e288           	lsrl #1,%d0
 282:	e291           	roxrl #1,%d1
 284:	e292           	roxrl #1,%d2
 286:	e293           	roxrl #1,%d3
 288:	5244           	addqw #1,%d4
 28a:	41fa 0020      	lea %pc@(2ac <___adddf3+0x24c>),%a0
 28e:	43f9 0000 0000 	lea 0 <___subdf3-0x5a>,%a1
 294:	3c29 0006      	movew %a1@(6),%d6
 298:	6700 06cc      	beqw 966 <___cmpdf2+0x20>
 29c:	0c46 0002      	cmpiw #2,%d6
 2a0:	6200 0728      	bhiw 9ca <___cmpdf2+0x84>
 2a4:	6d00 0724      	bltw 9ca <___cmpdf2+0x84>
 2a8:	6000 0720      	braw 9ca <___cmpdf2+0x84>
 2ac:	0880 0034      	bclr #52,%d0
 2b0:	e94c           	lslw #4,%d4
 2b2:	4840           	swap %d0
 2b4:	8044           	orw %d4,%d0
 2b6:	4840           	swap %d0
 2b8:	6000 00ac      	braw 366 <___adddf3+0x306>
 2bc:	4cdf 0c00      	moveml %sp@+,%a2-%a3
 2c0:	202e 0010      	movel %fp@(16),%d0
 2c4:	222e 0014      	movel %fp@(20),%d1
 2c8:	41f9 0000 0000 	lea 0 <___subdf3-0x5a>,%a0
 2ce:	30bc 0000      	movew #0,%a0@
 2d2:	4cdf 00fc      	moveml %sp@+,%d2-%d7
 2d6:	4e5e           	unlk %fp
 2d8:	4e75           	rts
 2da:	4cdf 0c00      	moveml %sp@+,%a2-%a3
 2de:	202e 0008      	movel %fp@(8),%d0
 2e2:	222e 000c      	movel %fp@(12),%d1
 2e6:	41f9 0000 0000 	lea 0 <___subdf3-0x5a>,%a0
 2ec:	30bc 0000      	movew #0,%a0@
 2f0:	4cdf 00fc      	moveml %sp@+,%d2-%d7
 2f4:	4e5e           	unlk %fp
 2f6:	4e75           	rts
 2f8:	2807           	movel %d7,%d4
 2fa:	6000 fdc0      	braw bc <___adddf3+0x5c>
 2fe:	2a07           	movel %d7,%d5
 300:	4686           	notl %d6
 302:	6000 fdd0      	braw d4 <___adddf3+0x74>
 306:	2002           	movel %d2,%d0
 308:	2203           	movel %d3,%d1
 30a:	6600 0020      	bnew 32c <___adddf3+0x2cc>
 30e:	0c80 8000 0000 	cmpil #-2147483648,%d0
 314:	6600 0016      	bnew 32c <___adddf3+0x2cc>
 318:	0287 8000 0000 	andil #-2147483648,%d7
 31e:	4280           	clrl %d0
 320:	6000 0044      	braw 366 <___adddf3+0x306>
 324:	202e 0008      	movel %fp@(8),%d0
 328:	222e 000c      	movel %fp@(12),%d1
 32c:	7a01           	moveq #1,%d5
 32e:	2e00           	movel %d0,%d7
 330:	0287 8000 0000 	andil #-2147483648,%d7
 336:	0880 001f      	bclr #31,%d0
 33a:	0c80 7ff0 0000 	cmpil #2146435072,%d0
 340:	6c00 0010      	bgew 352 <___adddf3+0x2f2>
 344:	2000           	movel %d0,%d0
 346:	6600 001e      	bnew 366 <___adddf3+0x306>
 34a:	0887 001f      	bclr #31,%d7
 34e:	6000 0016      	braw 366 <___adddf3+0x306>
 352:	0280 000f ffff 	andil #1048575,%d0
 358:	8081           	orl %d1,%d0
 35a:	6600 fcd8      	bnew 34 <___subdf3-0x26>
 35e:	6000 fcae      	braw e <___subdf3-0x4c>
 362:	4cdf 0c00      	moveml %sp@+,%a2-%a3
 366:	41f9 0000 0000 	lea 0 <___subdf3-0x5a>,%a0
 36c:	30bc 0000      	movew #0,%a0@
 370:	8087           	orl %d7,%d0
 372:	4cdf 00fc      	moveml %sp@+,%d2-%d7
 376:	4e5e           	unlk %fp
 378:	4e75           	rts
 37a:	e288           	lsrl #1,%d0
 37c:	e291           	roxrl #1,%d1
 37e:	6000 ffe6      	braw 366 <___adddf3+0x306>
 382:	7a01           	moveq #1,%d5
 384:	202e 0008      	movel %fp@(8),%d0
 388:	222e 000c      	movel %fp@(12),%d1
 38c:	242e 0010      	movel %fp@(16),%d2
 390:	262e 0014      	movel %fp@(20),%d3
 394:	283c 7ff0 0000 	movel #2146435072,%d4
 39a:	2e00           	movel %d0,%d7
 39c:	2c02           	movel %d2,%d6
 39e:	0880 001f      	bclr #31,%d0
 3a2:	0882 001f      	bclr #31,%d2
 3a6:	b084           	cmpl %d4,%d0
 3a8:	6200 fc8a      	bhiw 34 <___subdf3-0x26>
 3ac:	6600 0008      	bnew 3b6 <___adddf3+0x356>
 3b0:	4a81           	tstl %d1
 3b2:	6600 fc80      	bnew 34 <___subdf3-0x26>
 3b6:	b484           	cmpl %d4,%d2
 3b8:	6200 fc7a      	bhiw 34 <___subdf3-0x26>
 3bc:	6600 0008      	bnew 3c6 <___adddf3+0x366>
 3c0:	4a83           	tstl %d3
 3c2:	6600 fc70      	bnew 34 <___subdf3-0x26>
 3c6:	bf86           	eorl %d7,%d6
 3c8:	6b00 000c      	bmiw 3d6 <___adddf3+0x376>
 3cc:	0287 8000 0000 	andil #-2147483648,%d7
 3d2:	6000 fc3a      	braw e <___subdf3-0x4c>
 3d6:	b082           	cmpl %d2,%d0
 3d8:	6600 0008      	bnew 3e2 <___adddf3+0x382>
 3dc:	b283           	cmpl %d3,%d1
 3de:	6700 fc54      	beqw 34 <___subdf3-0x26>
 3e2:	0287 8000 0000 	andil #-2147483648,%d7
 3e8:	b084           	cmpl %d4,%d0
 3ea:	6700 fc22      	beqw e <___subdf3-0x4c>
 3ee:	0847 001f      	bchg #31,%d7
 3f2:	6000 fc1a      	braw e <___subdf3-0x4c>

000003f6 <___muldf3>:
 3f6:	4e56 0000      	linkw %fp,#0
 3fa:	48e7 3f00      	moveml %d2-%d7,%sp@-
 3fe:	202e 0008      	movel %fp@(8),%d0
 402:	222e 000c      	movel %fp@(12),%d1
 406:	242e 0010      	movel %fp@(16),%d2
 40a:	262e 0014      	movel %fp@(20),%d3
 40e:	2e00           	movel %d0,%d7
 410:	b587           	eorl %d2,%d7
 412:	0287 8000 0000 	andil #-2147483648,%d7
 418:	2047           	moveal %d7,%a0
 41a:	2e3c 7ff0 0000 	movel #2146435072,%d7
 420:	2c07           	movel %d7,%d6
 422:	4686           	notl %d6
 424:	0880 001f      	bclr #31,%d0
 428:	2800           	movel %d0,%d4
 42a:	8881           	orl %d1,%d4
 42c:	6700 0120      	beqw 54e <___muldf3+0x158>
 430:	2800           	movel %d0,%d4
 432:	0882 001f      	bclr #31,%d2
 436:	2a02           	movel %d2,%d5
 438:	8a83           	orl %d3,%d5
 43a:	6700 0106      	beqw 542 <___muldf3+0x14c>
 43e:	2a02           	movel %d2,%d5
 440:	b087           	cmpl %d7,%d0
 442:	6200 00dc      	bhiw 520 <___muldf3+0x12a>
 446:	6700 00ec      	beqw 534 <___muldf3+0x13e>
 44a:	b487           	cmpl %d7,%d2
 44c:	6200 00d2      	bhiw 520 <___muldf3+0x12a>
 450:	6700 00d4      	beqw 526 <___muldf3+0x130>
 454:	c887           	andl %d7,%d4
 456:	6700 0120      	beqw 578 <___muldf3+0x182>
 45a:	c086           	andl %d6,%d0
 45c:	0080 0010 0000 	oril #1048576,%d0
 462:	4844           	swap %d4
 464:	e84c           	lsrw #4,%d4
 466:	ca87           	andl %d7,%d5
 468:	6700 0124      	beqw 58e <___muldf3+0x198>
 46c:	c486           	andl %d6,%d2
 46e:	0082 0010 0000 	oril #1048576,%d2
 474:	4845           	swap %d5
 476:	e84d           	lsrw #4,%d5
 478:	d845           	addw %d5,%d4
 47a:	0444 03ff      	subiw #1023,%d4
 47e:	48e7 0030      	moveml %a2-%a3,%sp@-
 482:	247c 0000 0000 	moveal #0,%a2
 488:	2644           	moveal %d4,%a3
 48a:	ea9a           	rorl #5,%d2
 48c:	4842           	swap %d2
 48e:	ea9b           	rorl #5,%d3
 490:	4843           	swap %d3
 492:	3c03           	movew %d3,%d6
 494:	0246 07ff      	andiw #2047,%d6
 498:	8446           	orw %d6,%d2
 49a:	0243 f800      	andiw #-2048,%d3
 49e:	2c02           	movel %d2,%d6
 4a0:	2e03           	movel %d3,%d7
 4a2:	2800           	movel %d0,%d4
 4a4:	2a01           	movel %d1,%d5
 4a6:	7600           	moveq #0,%d3
 4a8:	2403           	movel %d3,%d2
 4aa:	2203           	movel %d3,%d1
 4ac:	2003           	movel %d3,%d0
 4ae:	227c 0000 0034 	moveal #52,%a1
 4b4:	cf89           	exg %d7,%a1
 4b6:	cf89           	exg %d7,%a1
 4b8:	d683           	addl %d3,%d3
 4ba:	d582           	addxl %d2,%d2
 4bc:	d381           	addxl %d1,%d1
 4be:	d180           	addxl %d0,%d0
 4c0:	de87           	addl %d7,%d7
 4c2:	dd86           	addxl %d6,%d6
 4c4:	6400 000e      	bccw 4d4 <___muldf3+0xde>
 4c8:	cf8a           	exg %d7,%a2
 4ca:	d685           	addl %d5,%d3
 4cc:	d584           	addxl %d4,%d2
 4ce:	d387           	addxl %d7,%d1
 4d0:	d187           	addxl %d7,%d0
 4d2:	cf8a           	exg %d7,%a2
 4d4:	cf89           	exg %d7,%a1
 4d6:	51cf ffde      	dbf %d7,4b6 <___muldf3+0xc0>
 4da:	280b           	movel %a3,%d4
 4dc:	4cdf 0c00      	moveml %sp@+,%a2-%a3
 4e0:	4840           	swap %d0
 4e2:	4841           	swap %d1
 4e4:	3001           	movew %d1,%d0
 4e6:	4842           	swap %d2
 4e8:	3202           	movew %d2,%d1
 4ea:	4843           	swap %d3
 4ec:	3403           	movew %d3,%d2
 4ee:	363c 0000      	movew #0,%d3
 4f2:	e288           	lsrl #1,%d0
 4f4:	e291           	roxrl #1,%d1
 4f6:	e292           	roxrl #1,%d2
 4f8:	e293           	roxrl #1,%d3
 4fa:	e288           	lsrl #1,%d0
 4fc:	e291           	roxrl #1,%d1
 4fe:	e292           	roxrl #1,%d2
 500:	e293           	roxrl #1,%d3
 502:	e288           	lsrl #1,%d0
 504:	e291           	roxrl #1,%d1
 506:	e292           	roxrl #1,%d2
 508:	e293           	roxrl #1,%d3
 50a:	2e08           	movel %a0,%d7
 50c:	7a02           	moveq #2,%d5
 50e:	0800 0016      	btst #22,%d0
 512:	6700 027a      	beqw 78e <___divdf3+0x1ea>
 516:	e288           	lsrl #1,%d0
 518:	e291           	roxrl #1,%d1
 51a:	5244           	addqw #1,%d4
 51c:	6000 0270      	braw 78e <___divdf3+0x1ea>
 520:	7a02           	moveq #2,%d5
 522:	6000 fb10      	braw 34 <___subdf3-0x26>
 526:	7a02           	moveq #2,%d5
 528:	2e08           	movel %a0,%d7
 52a:	4a83           	tstl %d3
 52c:	6600 fb06      	bnew 34 <___subdf3-0x26>
 530:	6000 fadc      	braw e <___subdf3-0x4c>
 534:	7a02           	moveq #2,%d5
 536:	2e08           	movel %a0,%d7
 538:	4a81           	tstl %d1
 53a:	6600 faf8      	bnew 34 <___subdf3-0x26>
 53e:	6000 face      	braw e <___subdf3-0x4c>
 542:	7a02           	moveq #2,%d5
 544:	c540           	exg %d2,%d0
 546:	c741           	exg %d3,%d1
 548:	2008           	movel %a0,%d0
 54a:	6000 0010      	braw 55c <___muldf3+0x166>
 54e:	2008           	movel %a0,%d0
 550:	242e 0010      	movel %fp@(16),%d2
 554:	262e 0014      	movel %fp@(20),%d3
 558:	0882 001f      	bclr #31,%d2
 55c:	0c82 7ff0 0000 	cmpil #2146435072,%d2
 562:	6c00 fad0      	bgew 34 <___subdf3-0x26>
 566:	41f9 0000 0000 	lea 0 <___subdf3-0x5a>,%a0
 56c:	30bc 0000      	movew #0,%a0@
 570:	4cdf 00fc      	moveml %sp@+,%d2-%d7
 574:	4e5e           	unlk %fp
 576:	4e75           	rts
 578:	7801           	moveq #1,%d4
 57a:	c086           	andl %d6,%d0
 57c:	d281           	addl %d1,%d1
 57e:	d180           	addxl %d0,%d0
 580:	5344           	subqw #1,%d4
 582:	0800 0014      	btst #20,%d0
 586:	6600 fede      	bnew 466 <___muldf3+0x70>
 58a:	6000 fff0      	braw 57c <___muldf3+0x186>
 58e:	7a01           	moveq #1,%d5
 590:	c486           	andl %d6,%d2
 592:	d683           	addl %d3,%d3
 594:	d582           	addxl %d2,%d2
 596:	5345           	subqw #1,%d5
 598:	0802 0014      	btst #20,%d2
 59c:	6600 feda      	bnew 478 <___muldf3+0x82>
 5a0:	6000 fff0      	braw 592 <___muldf3+0x19c>

000005a4 <___divdf3>:
 5a4:	4e56 0000      	linkw %fp,#0
 5a8:	48e7 3f00      	moveml %d2-%d7,%sp@-
 5ac:	202e 0008      	movel %fp@(8),%d0
 5b0:	222e 000c      	movel %fp@(12),%d1
 5b4:	242e 0010      	movel %fp@(16),%d2
 5b8:	262e 0014      	movel %fp@(20),%d3
 5bc:	2e00           	movel %d0,%d7
 5be:	b587           	eorl %d2,%d7
 5c0:	0287 8000 0000 	andil #-2147483648,%d7
 5c6:	2047           	moveal %d7,%a0
 5c8:	2e3c 7ff0 0000 	movel #2146435072,%d7
 5ce:	2c07           	movel %d7,%d6
 5d0:	4686           	notl %d6
 5d2:	0880 001f      	bclr #31,%d0
 5d6:	2800           	movel %d0,%d4
 5d8:	8881           	orl %d1,%d4
 5da:	6700 0112      	beqw 6ee <___divdf3+0x14a>
 5de:	2800           	movel %d0,%d4
 5e0:	0882 001f      	bclr #31,%d2
 5e4:	2a02           	movel %d2,%d5
 5e6:	8a83           	orl %d3,%d5
 5e8:	6700 013c      	beqw 726 <___divdf3+0x182>
 5ec:	2a02           	movel %d2,%d5
 5ee:	b087           	cmpl %d7,%d0
 5f0:	6200 00f6      	bhiw 6e8 <___divdf3+0x144>
 5f4:	6700 0154      	beqw 74a <___divdf3+0x1a6>
 5f8:	b487           	cmpl %d7,%d2
 5fa:	6200 00ec      	bhiw 6e8 <___divdf3+0x144>
 5fe:	6700 013e      	beqw 73e <___divdf3+0x19a>
 602:	c887           	andl %d7,%d4
 604:	6700 015c      	beqw 762 <___divdf3+0x1be>
 608:	c086           	andl %d6,%d0
 60a:	0080 0010 0000 	oril #1048576,%d0
 610:	4844           	swap %d4
 612:	e84c           	lsrw #4,%d4
 614:	ca87           	andl %d7,%d5
 616:	6700 0160      	beqw 778 <___divdf3+0x1d4>
 61a:	c486           	andl %d6,%d2
 61c:	0082 0010 0000 	oril #1048576,%d2
 622:	4845           	swap %d5
 624:	e84d           	lsrw #4,%d5
 626:	9845           	subw %d5,%d4
 628:	0644 03fe      	addiw #1022,%d4
 62c:	7c00           	moveq #0,%d6
 62e:	2e06           	movel %d6,%d7
 630:	227c 0000 0000 	moveal #0,%a1
 636:	7a16           	moveq #22,%d5
 638:	b480           	cmpl %d0,%d2
 63a:	6200 000c      	bhiw 648 <___divdf3+0xa4>
 63e:	6700 0014      	beqw 654 <___divdf3+0xb0>
 642:	9283           	subl %d3,%d1
 644:	9182           	subxl %d2,%d0
 646:	0bc6           	bset %d5,%d6
 648:	d281           	addl %d1,%d1
 64a:	d180           	addxl %d0,%d0
 64c:	51cd ffea      	dbf %d5,638 <___divdf3+0x94>
 650:	6000 000c      	braw 65e <___divdf3+0xba>
 654:	b681           	cmpl %d1,%d3
 656:	6200 fff0      	bhiw 648 <___divdf3+0xa4>
 65a:	6000 ffe6      	braw 642 <___divdf3+0x9e>
 65e:	7a1f           	moveq #31,%d5
 660:	b480           	cmpl %d0,%d2
 662:	6200 000c      	bhiw 670 <___divdf3+0xcc>
 666:	6700 0014      	beqw 67c <___divdf3+0xd8>
 66a:	9283           	subl %d3,%d1
 66c:	9182           	subxl %d2,%d0
 66e:	0bc7           	bset %d5,%d7
 670:	d281           	addl %d1,%d1
 672:	d180           	addxl %d0,%d0
 674:	51cd ffea      	dbf %d5,660 <___divdf3+0xbc>
 678:	6000 000c      	braw 686 <___divdf3+0xe2>
 67c:	b681           	cmpl %d1,%d3
 67e:	6200 fff0      	bhiw 670 <___divdf3+0xcc>
 682:	6000 ffe6      	braw 66a <___divdf3+0xc6>
 686:	7a35           	moveq #53,%d5
 688:	b082           	cmpl %d2,%d0
 68a:	6200 001c      	bhiw 6a8 <___divdf3+0x104>
 68e:	6700 0012      	beqw 6a2 <___divdf3+0xfe>
 692:	d281           	addl %d1,%d1
 694:	d180           	addxl %d0,%d0
 696:	51cd fff0      	dbf %d5,688 <___divdf3+0xe4>
 69a:	7400           	moveq #0,%d2
 69c:	2602           	movel %d2,%d3
 69e:	6000 0028      	braw 6c8 <___divdf3+0x124>
 6a2:	b681           	cmpl %d1,%d3
 6a4:	6200 ffec      	bhiw 692 <___divdf3+0xee>
 6a8:	7400           	moveq #0,%d2
 6aa:	2602           	movel %d2,%d3
 6ac:	0445 0035      	subiw #53,%d5
 6b0:	0645 003f      	addiw #63,%d5
 6b4:	0c45 001f      	cmpiw #31,%d5
 6b8:	6200 000c      	bhiw 6c6 <___divdf3+0x122>
 6bc:	0bc3           	bset %d5,%d3
 6be:	6000 0008      	braw 6c8 <___divdf3+0x124>
 6c2:	0445 0020      	subiw #32,%d5
 6c6:	0bc2           	bset %d5,%d2
 6c8:	2006           	movel %d6,%d0
 6ca:	2207           	movel %d7,%d1
 6cc:	7600           	moveq #0,%d3
 6ce:	0800 0016      	btst #22,%d0
 6d2:	6700 000c      	beqw 6e0 <___divdf3+0x13c>
 6d6:	e288           	lsrl #1,%d0
 6d8:	e291           	roxrl #1,%d1
 6da:	e292           	roxrl #1,%d2
 6dc:	e293           	roxrl #1,%d3
 6de:	5244           	addqw #1,%d4
 6e0:	2e08           	movel %a0,%d7
 6e2:	7a03           	moveq #3,%d5
 6e4:	6000 00a8      	braw 78e <___divdf3+0x1ea>
 6e8:	7a03           	moveq #3,%d5
 6ea:	6000 f948      	braw 34 <___subdf3-0x26>
 6ee:	7a03           	moveq #3,%d5
 6f0:	0882 001f      	bclr #31,%d2
 6f4:	2802           	movel %d2,%d4
 6f6:	8883           	orl %d3,%d4
 6f8:	6700 f93a      	beqw 34 <___subdf3-0x26>
 6fc:	0c82 7ff0 0000 	cmpil #2146435072,%d2
 702:	6200 f930      	bhiw 34 <___subdf3-0x26>
 706:	6d00 0008      	bltw 710 <___divdf3+0x16c>
 70a:	4a83           	tstl %d3
 70c:	6600 f926      	bnew 34 <___subdf3-0x26>
 710:	2008           	movel %a0,%d0
 712:	7200           	moveq #0,%d1
 714:	41f9 0000 0000 	lea 0 <___subdf3-0x5a>,%a0
 71a:	30bc 0000      	movew #0,%a0@
 71e:	4cdf 00fc      	moveml %sp@+,%d2-%d7
 722:	4e5e           	unlk %fp
 724:	4e75           	rts
 726:	7a03           	moveq #3,%d5
 728:	2e08           	movel %a0,%d7
 72a:	0c80 7ff0 0000 	cmpil #2146435072,%d0
 730:	6200 f902      	bhiw 34 <___subdf3-0x26>
 734:	4a81           	tstl %d1
 736:	6600 f8fc      	bnew 34 <___subdf3-0x26>
 73a:	6000 f908      	braw 44 <___subdf3-0x16>
 73e:	7a03           	moveq #3,%d5
 740:	4a83           	tstl %d3
 742:	6600 f8f0      	bnew 34 <___subdf3-0x26>
 746:	6000 f8dc      	braw 24 <___subdf3-0x36>
 74a:	7a03           	moveq #3,%d5
 74c:	4a81           	tstl %d1
 74e:	6600 f8e4      	bnew 34 <___subdf3-0x26>
 752:	b487           	cmpl %d7,%d2
 754:	6c00 f8de      	bgew 34 <___subdf3-0x26>
 758:	4a83           	tstl %d3
 75a:	6600 f8d8      	bnew 34 <___subdf3-0x26>
 75e:	6000 f8ae      	braw e <___subdf3-0x4c>
 762:	7801           	moveq #1,%d4
 764:	c086           	andl %d6,%d0
 766:	d281           	addl %d1,%d1
 768:	d180           	addxl %d0,%d0
 76a:	5344           	subqw #1,%d4
 76c:	0800 0014      	btst #20,%d0
 770:	6600 fea2      	bnew 614 <___divdf3+0x70>
 774:	6000 fff0      	braw 766 <___divdf3+0x1c2>
 778:	7a01           	moveq #1,%d5
 77a:	c486           	andl %d6,%d2
 77c:	d683           	addl %d3,%d3
 77e:	d582           	addxl %d2,%d2
 780:	5345           	subqw #1,%d5
 782:	0802 0014      	btst #20,%d2
 786:	6600 fe9e      	bnew 626 <___divdf3+0x82>
 78a:	6000 fff0      	braw 77c <___divdf3+0x1d8>
 78e:	0c44 ffca      	cmpiw #-54,%d4
 792:	6d00 f890      	bltw 24 <___subdf3-0x36>
 796:	2047           	moveal %d7,%a0
 798:	7c00           	moveq #0,%d6
 79a:	2e06           	movel %d6,%d7
 79c:	0c44 0001      	cmpiw #1,%d4
 7a0:	6c00 0020      	bgew 7c2 <___divdf3+0x21e>
 7a4:	5244           	addqw #1,%d4
 7a6:	e288           	lsrl #1,%d0
 7a8:	e291           	roxrl #1,%d1
 7aa:	e292           	roxrl #1,%d2
 7ac:	e293           	roxrl #1,%d3
 7ae:	e296           	roxrl #1,%d6
 7b0:	e297           	roxrl #1,%d7
 7b2:	0c44 0001      	cmpiw #1,%d4
 7b6:	6700 000a      	beqw 7c2 <___divdf3+0x21e>
 7ba:	6000 ffe8      	braw 7a4 <___divdf3+0x200>
 7be:	6000 f864      	braw 24 <___subdf3-0x36>
 7c2:	8486           	orl %d6,%d2
 7c4:	8687           	orl %d7,%d3
 7c6:	2e08           	movel %a0,%d7
 7c8:	41fa 0020      	lea %pc@(7ea <___divdf3+0x246>),%a0
 7cc:	43f9 0000 0000 	lea 0 <___subdf3-0x5a>,%a1
 7d2:	3c29 0006      	movew %a1@(6),%d6
 7d6:	6700 018e      	beqw 966 <___cmpdf2+0x20>
 7da:	0c46 0002      	cmpiw #2,%d6
 7de:	6200 01ea      	bhiw 9ca <___cmpdf2+0x84>
 7e2:	6d00 01e6      	bltw 9ca <___cmpdf2+0x84>
 7e6:	6000 01e2      	braw 9ca <___cmpdf2+0x84>
 7ea:	0c44 07ff      	cmpiw #2047,%d4
 7ee:	6c00 f81e      	bgew e <___subdf3-0x4c>
 7f2:	3804           	movew %d4,%d4
 7f4:	6700 f80a      	beqw 0 <___subdf3-0x5a>
 7f8:	e94c           	lslw #4,%d4
 7fa:	0880 0014      	bclr #20,%d0
 7fe:	4840           	swap %d0
 800:	8044           	orw %d4,%d0
 802:	4840           	swap %d0
 804:	8087           	orl %d7,%d0
 806:	41f9 0000 0000 	lea 0 <___subdf3-0x5a>,%a0
 80c:	30bc 0000      	movew #0,%a0@
 810:	4cdf 00fc      	moveml %sp@+,%d2-%d7
 814:	4e5e           	unlk %fp
 816:	4e75           	rts

00000818 <___negdf2>:
 818:	4e56 0000      	linkw %fp,#0
 81c:	48e7 3f00      	moveml %d2-%d7,%sp@-
 820:	7a04           	moveq #4,%d5
 822:	202e 0008      	movel %fp@(8),%d0
 826:	222e 000c      	movel %fp@(12),%d1
 82a:	0840 001f      	bchg #31,%d0
 82e:	2400           	movel %d0,%d2
 830:	0882 001f      	bclr #31,%d2
 834:	2802           	movel %d2,%d4
 836:	8881           	orl %d1,%d4
 838:	6700 0034      	beqw 86e <___negdf2+0x56>
 83c:	0c82 7ff0 0000 	cmpil #2146435072,%d2
 842:	6d00 0018      	bltw 85c <___negdf2+0x44>
 846:	6200 f7ec      	bhiw 34 <___subdf3-0x26>
 84a:	4a81           	tstl %d1
 84c:	6600 f7e6      	bnew 34 <___subdf3-0x26>
 850:	2e00           	movel %d0,%d7
 852:	0287 8000 0000 	andil #-2147483648,%d7
 858:	6000 f7b4      	braw e <___subdf3-0x4c>
 85c:	41f9 0000 0000 	lea 0 <___subdf3-0x5a>,%a0
 862:	30bc 0000      	movew #0,%a0@
 866:	4cdf 00fc      	moveml %sp@+,%d2-%d7
 86a:	4e5e           	unlk %fp
 86c:	4e75           	rts
 86e:	0880 001f      	bclr #31,%d0
 872:	6000 ffe8      	braw 85c <___negdf2+0x44>

00000876 <___cmpdf2_internal>:
 876:	4e56 0000      	linkw %fp,#0
 87a:	48e7 3f00      	moveml %d2-%d7,%sp@-
 87e:	7a05           	moveq #5,%d5
 880:	202e 0008      	movel %fp@(8),%d0
 884:	222e 000c      	movel %fp@(12),%d1
 888:	242e 0010      	movel %fp@(16),%d2
 88c:	262e 0014      	movel %fp@(20),%d3
 890:	2c00           	movel %d0,%d6
 892:	0880 001f      	bclr #31,%d0
 896:	2e02           	movel %d2,%d7
 898:	0882 001f      	bclr #31,%d2
 89c:	0c80 7ff0 0000 	cmpil #2146435072,%d0
 8a2:	6200 0094      	bhiw 938 <___cmpdf2_internal+0xc2>
 8a6:	6700 007c      	beqw 924 <___cmpdf2_internal+0xae>
 8aa:	2800           	movel %d0,%d4
 8ac:	8881           	orl %d1,%d4
 8ae:	6700 0064      	beqw 914 <___cmpdf2_internal+0x9e>
 8b2:	0c82 7ff0 0000 	cmpil #2146435072,%d2
 8b8:	6200 007e      	bhiw 938 <___cmpdf2_internal+0xc2>
 8bc:	6700 0070      	beqw 92e <___cmpdf2_internal+0xb8>
 8c0:	2802           	movel %d2,%d4
 8c2:	8883           	orl %d3,%d4
 8c4:	6700 0056      	beqw 91c <___cmpdf2_internal+0xa6>
 8c8:	bd87           	eorl %d6,%d7
 8ca:	6a00 000c      	bplw 8d8 <___cmpdf2_internal+0x62>
 8ce:	4a86           	tstl %d6
 8d0:	6a00 002e      	bplw 900 <___cmpdf2_internal+0x8a>
 8d4:	6b00 0034      	bmiw 90a <___cmpdf2_internal+0x94>
 8d8:	4a86           	tstl %d6
 8da:	6a00 0006      	bplw 8e2 <___cmpdf2_internal+0x6c>
 8de:	c142           	exg %d0,%d2
 8e0:	c343           	exg %d1,%d3
 8e2:	b480           	cmpl %d0,%d2
 8e4:	6200 0024      	bhiw 90a <___cmpdf2_internal+0x94>
 8e8:	6600 0016      	bnew 900 <___cmpdf2_internal+0x8a>
 8ec:	b681           	cmpl %d1,%d3
 8ee:	6200 001a      	bhiw 90a <___cmpdf2_internal+0x94>
 8f2:	6600 000c      	bnew 900 <___cmpdf2_internal+0x8a>
 8f6:	7000           	moveq #0,%d0
 8f8:	4cdf 00fc      	moveml %sp@+,%d2-%d7
 8fc:	4e5e           	unlk %fp
 8fe:	4e75           	rts
 900:	7001           	moveq #1,%d0
 902:	4cdf 00fc      	moveml %sp@+,%d2-%d7
 906:	4e5e           	unlk %fp
 908:	4e75           	rts
 90a:	70ff           	moveq #-1,%d0
 90c:	4cdf 00fc      	moveml %sp@+,%d2-%d7
 910:	4e5e           	unlk %fp
 912:	4e75           	rts
 914:	0886 001f      	bclr #31,%d6
 918:	6000 ff98      	braw 8b2 <___cmpdf2_internal+0x3c>
 91c:	0887 001f      	bclr #31,%d7
 920:	6000 ffa6      	braw 8c8 <___cmpdf2_internal+0x52>
 924:	4a81           	tstl %d1
 926:	6600 f70c      	bnew 34 <___subdf3-0x26>
 92a:	6000 ff86      	braw 8b2 <___cmpdf2_internal+0x3c>
 92e:	4a83           	tstl %d3
 930:	6600 f702      	bnew 34 <___subdf3-0x26>
 934:	6000 ff92      	braw 8c8 <___cmpdf2_internal+0x52>
 938:	202e 0018      	movel %fp@(24),%d0
 93c:	7e11           	moveq #17,%d7
 93e:	7c02           	moveq #2,%d6
 940:	4ef9 0000 0000 	jmp 0 <___subdf3-0x5a>

00000946 <___cmpdf2>:
 946:	4e56 0000      	linkw %fp,#0
 94a:	4878 0001      	pea 1 <___subdf3-0x59>
 94e:	2f2e 0014      	movel %fp@(20),%sp@-
 952:	2f2e 0010      	movel %fp@(16),%sp@-
 956:	2f2e 000c      	movel %fp@(12),%sp@-
 95a:	2f2e 0008      	movel %fp@(8),%sp@-
 95e:	6100 ff16      	bsrw 876 <___cmpdf2_internal>
 962:	4e5e           	unlk %fp
 964:	4e75           	rts
 966:	0800 0015      	btst #21,%d0
 96a:	6600 0016      	bnew 982 <___cmpdf2+0x3c>
 96e:	0c44 0001      	cmpiw #1,%d4
 972:	6700 000e      	beqw 982 <___cmpdf2+0x3c>
 976:	d683           	addl %d3,%d3
 978:	d582           	addxl %d2,%d2
 97a:	d381           	addxl %d1,%d1
 97c:	d180           	addxl %d0,%d0
 97e:	51cc ffe6      	dbf %d4,966 <___cmpdf2+0x20>
 982:	0801 0000      	btst #0,%d1
 986:	6700 0022      	beqw 9aa <___cmpdf2+0x64>
 98a:	8682           	orl %d2,%d3
 98c:	6600 0014      	bnew 9a2 <___cmpdf2+0x5c>
 990:	2601           	movel %d1,%d3
 992:	0283 0000 0002 	andil #2,%d3
 998:	7400           	moveq #0,%d2
 99a:	d283           	addl %d3,%d1
 99c:	d182           	addxl %d2,%d0
 99e:	6000 000a      	braw 9aa <___cmpdf2+0x64>
 9a2:	7601           	moveq #1,%d3
 9a4:	7400           	moveq #0,%d2
 9a6:	d283           	addl %d3,%d1
 9a8:	d182           	addxl %d2,%d0
 9aa:	e288           	lsrl #1,%d0
 9ac:	e291           	roxrl #1,%d1
 9ae:	0800 0015      	btst #21,%d0
 9b2:	6700 0008      	beqw 9bc <___cmpdf2+0x76>
 9b6:	e288           	lsrl #1,%d0
 9b8:	e291           	roxrl #1,%d1
 9ba:	5244           	addqw #1,%d4
 9bc:	0800 0014      	btst #20,%d0
 9c0:	6700 0004      	beqw 9c6 <___cmpdf2+0x80>
 9c4:	4ed0           	jmp %a0@
 9c6:	7800           	moveq #0,%d4
 9c8:	4ed0           	jmp %a0@
 9ca:	4ed0           	jmp %a0@

_float.o:     file format a.out-zero-big


Disassembly of section .text:

00000000 <___subsf3-0x48>:
   0:	8087           	orl %d7,%d0
   2:	7e03           	moveq #3,%d7
   4:	7c01           	moveq #1,%d6
   6:	4ef9 0000 0000 	jmp 0 <___subsf3-0x48>
   c:	203c 7f80 0000 	movel #2139095040,%d0
  12:	8087           	orl %d7,%d0
  14:	7e05           	moveq #5,%d7
  16:	7c01           	moveq #1,%d6
  18:	4ef9 0000 0000 	jmp 0 <___subsf3-0x48>
  1e:	7000           	moveq #0,%d0
  20:	7e03           	moveq #3,%d7
  22:	7c01           	moveq #1,%d6
  24:	4ef9 0000 0000 	jmp 0 <___subsf3-0x48>
  2a:	70ff           	moveq #-1,%d0
  2c:	7e11           	moveq #17,%d7
  2e:	7c01           	moveq #1,%d6
  30:	4ef9 0000 0000 	jmp 0 <___subsf3-0x48>
  36:	203c 7f80 0000 	movel #2139095040,%d0
  3c:	8087           	orl %d7,%d0
  3e:	7e09           	moveq #9,%d7
  40:	7c01           	moveq #1,%d6
  42:	4ef9 0000 0000 	jmp 0 <___subsf3-0x48>

00000048 <___subsf3>:
  48:	086f 001f 0008 	bchg #31,%sp@(8)

0000004e <___addsf3>:
  4e:	4e56 0000      	linkw %fp,#0
  52:	48e7 3f00      	moveml %d2-%d7,%sp@-
  56:	202e 0008      	movel %fp@(8),%d0
  5a:	222e 000c      	movel %fp@(12),%d1
  5e:	2040           	moveal %d0,%a0
  60:	d080           	addl %d0,%d0
  62:	6700 01b6      	beqw 21a <___addsf3+0x1cc>
  66:	2241           	moveal %d1,%a1
  68:	d281           	addl %d1,%d1
  6a:	6700 01ca      	beqw 236 <___addsf3+0x1e8>
  6e:	283c 00ff ffff 	movel #16777215,%d4
  74:	2a3c 0100 0000 	movel #16777216,%d5
  7a:	2c00           	movel %d0,%d6
  7c:	c084           	andl %d4,%d0
  7e:	4684           	notl %d4
  80:	cc84           	andl %d4,%d6
  82:	6700 0184      	beqw 208 <___addsf3+0x1ba>
  86:	bc84           	cmpl %d4,%d6
  88:	6700 01fe      	beqw 288 <___addsf3+0x23a>
  8c:	4846           	swap %d6
  8e:	8085           	orl %d5,%d0
  90:	2e01           	movel %d1,%d7
  92:	ce84           	andl %d4,%d7
  94:	6700 017a      	beqw 210 <___addsf3+0x1c2>
  98:	be84           	cmpl %d4,%d7
  9a:	6700 01ec      	beqw 288 <___addsf3+0x23a>
  9e:	4847           	swap %d7
  a0:	4684           	notl %d4
  a2:	c284           	andl %d4,%d1
  a4:	8285           	orl %d5,%d1
  a6:	2401           	movel %d1,%d2
  a8:	7200           	moveq #0,%d1
  aa:	2601           	movel %d1,%d3
  ac:	be46           	cmpw %d6,%d7
  ae:	6700 0074      	beqw 124 <___addsf3+0xd6>
  b2:	6200 003a      	bhiw ee <___addsf3+0xa0>
  b6:	9e86           	subl %d6,%d7
  b8:	4487           	negl %d7
  ba:	e04f           	lsrw #8,%d7
  bc:	0c47 001a      	cmpiw #26,%d7
  c0:	6c00 0130      	bgew 1f2 <___addsf3+0x1a4>
  c4:	0c47 0010      	cmpiw #16,%d7
  c8:	6c00 0010      	bgew da <___addsf3+0x8c>
  cc:	5347           	subqw #1,%d7
  ce:	e28a           	lsrl #1,%d2
  d0:	e293           	roxrl #1,%d3
  d2:	51cf fffa      	dbf %d7,ce <___addsf3+0x80>
  d6:	6000 004c      	braw 124 <___addsf3+0xd6>
  da:	3602           	movew %d2,%d3
  dc:	4843           	swap %d3
  de:	3403           	movew %d3,%d2
  e0:	4842           	swap %d2
  e2:	0447 0010      	subiw #16,%d7
  e6:	6600 ffe4      	bnew cc <___addsf3+0x7e>
  ea:	6000 0038      	braw 124 <___addsf3+0xd6>
  ee:	cd47           	exg %d6,%d7
  f0:	9e86           	subl %d6,%d7
  f2:	4487           	negl %d7
  f4:	e04f           	lsrw #8,%d7
  f6:	0c47 001a      	cmpiw #26,%d7
  fa:	6c00 00e0      	bgew 1dc <___addsf3+0x18e>
  fe:	0c47 0010      	cmpiw #16,%d7
 102:	6c00 0010      	bgew 114 <___addsf3+0xc6>
 106:	5347           	subqw #1,%d7
 108:	e288           	lsrl #1,%d0
 10a:	e291           	roxrl #1,%d1
 10c:	51cf fffa      	dbf %d7,108 <___addsf3+0xba>
 110:	6000 0012      	braw 124 <___addsf3+0xd6>
 114:	3200           	movew %d0,%d1
 116:	4841           	swap %d1
 118:	3001           	movew %d1,%d0
 11a:	4840           	swap %d0
 11c:	0447 0010      	subiw #16,%d7
 120:	6600 ffe4      	bnew 106 <___addsf3+0xb8>
 124:	cd88           	exg %d6,%a0
 126:	cf89           	exg %d7,%a1
 128:	bd87           	eorl %d6,%d7
 12a:	6b00 0060      	bmiw 18c <___addsf3+0x13e>
 12e:	cd88           	exg %d6,%a0
 130:	2e08           	movel %a0,%d7
 132:	0287 8000 0000 	andil #-2147483648,%d7
 138:	d283           	addl %d3,%d1
 13a:	d182           	addxl %d2,%d0
 13c:	2406           	movel %d6,%d2
 13e:	e04a           	lsrw #8,%d2
 140:	0800 0019      	btst #25,%d0
 144:	6700 0008      	beqw 14e <___addsf3+0x100>
 148:	e288           	lsrl #1,%d0
 14a:	e291           	roxrl #1,%d1
 14c:	5282           	addql #1,%d2
 14e:	41fa 0020      	lea %pc@(170 <___addsf3+0x122>),%a0
 152:	43f9 0000 0000 	lea 0 <___subsf3-0x48>,%a1
 158:	3c29 0006      	movew %a1@(6),%d6
 15c:	6700 0578      	beqw 6d6 <___cmpsf2+0x18>
 160:	0c46 0002      	cmpiw #2,%d6
 164:	6200 05c4      	bhiw 72a <___cmpsf2+0x6c>
 168:	6d00 05c0      	bltw 72a <___cmpsf2+0x6c>
 16c:	6000 05bc      	braw 72a <___cmpsf2+0x6c>
 170:	0c42 00ff      	cmpiw #255,%d2
 174:	6200 0010      	bhiw 186 <___addsf3+0x138>
 178:	0880 0017      	bclr #23,%d0
 17c:	ef4a           	lslw #7,%d2
 17e:	4842           	swap %d2
 180:	8082           	orl %d2,%d0
 182:	6000 00ea      	braw 26e <___addsf3+0x220>
 186:	7a01           	moveq #1,%d5
 188:	6000 fe82      	braw c <___subsf3-0x3c>
 18c:	2e06           	movel %d6,%d7
 18e:	0287 8000 0000 	andil #-2147483648,%d7
 194:	9283           	subl %d3,%d1
 196:	9182           	subxl %d2,%d0
 198:	6700 00d4      	beqw 26e <___addsf3+0x220>
 19c:	6a00 000a      	bplw 1a8 <___addsf3+0x15a>
 1a0:	0847 001f      	bchg #31,%d7
 1a4:	4481           	negl %d1
 1a6:	4080           	negxl %d0
 1a8:	c588           	exg %d2,%a0
 1aa:	e04a           	lsrw #8,%d2
 1ac:	41fa 0020      	lea %pc@(1ce <___addsf3+0x180>),%a0
 1b0:	43f9 0000 0000 	lea 0 <___subsf3-0x48>,%a1
 1b6:	3c29 0006      	movew %a1@(6),%d6
 1ba:	6700 051a      	beqw 6d6 <___cmpsf2+0x18>
 1be:	0c46 0002      	cmpiw #2,%d6
 1c2:	6200 0566      	bhiw 72a <___cmpsf2+0x6c>
 1c6:	6d00 0562      	bltw 72a <___cmpsf2+0x6c>
 1ca:	6000 055e      	braw 72a <___cmpsf2+0x6c>
 1ce:	0880 0017      	bclr #23,%d0
 1d2:	ef4a           	lslw #7,%d2
 1d4:	4842           	swap %d2
 1d6:	8082           	orl %d2,%d0
 1d8:	6000 0094      	braw 26e <___addsf3+0x220>
 1dc:	202e 000c      	movel %fp@(12),%d0
 1e0:	41f9 0000 0000 	lea 0 <___subsf3-0x48>,%a0
 1e6:	30bc 0000      	movew #0,%a0@
 1ea:	4cdf 00fc      	moveml %sp@+,%d2-%d7
 1ee:	4e5e           	unlk %fp
 1f0:	4e75           	rts
 1f2:	202e 0008      	movel %fp@(8),%d0
 1f6:	41f9 0000 0000 	lea 0 <___subsf3-0x48>,%a0
 1fc:	30bc 0000      	movew #0,%a0@
 200:	4cdf 00fc      	moveml %sp@+,%d2-%d7
 204:	4e5e           	unlk %fp
 206:	4e75           	rts
 208:	2c05           	movel %d5,%d6
 20a:	4846           	swap %d6
 20c:	6000 fe82      	braw 90 <___addsf3+0x42>
 210:	2e05           	movel %d5,%d7
 212:	4847           	swap %d7
 214:	4684           	notl %d4
 216:	6000 fe8e      	braw a6 <___addsf3+0x58>
 21a:	202e 000c      	movel %fp@(12),%d0
 21e:	0c80 8000 0000 	cmpil #-2147483648,%d0
 224:	6600 0014      	bnew 23a <___addsf3+0x1ec>
 228:	2e08           	movel %a0,%d7
 22a:	0287 8000 0000 	andil #-2147483648,%d7
 230:	4280           	clrl %d0
 232:	6000 003a      	braw 26e <___addsf3+0x220>
 236:	202e 0008      	movel %fp@(8),%d0
 23a:	7a01           	moveq #1,%d5
 23c:	2e00           	movel %d0,%d7
 23e:	0287 8000 0000 	andil #-2147483648,%d7
 244:	0880 001f      	bclr #31,%d0
 248:	0c80 7f80 0000 	cmpil #2139095040,%d0
 24e:	6c00 0010      	bgew 260 <___addsf3+0x212>
 252:	2000           	movel %d0,%d0
 254:	6600 0018      	bnew 26e <___addsf3+0x220>
 258:	0887 001f      	bclr #31,%d7
 25c:	6000 0010      	braw 26e <___addsf3+0x220>
 260:	0280 007f ffff 	andil #8388607,%d0
 266:	6600 fdc2      	bnew 2a <___subsf3-0x1e>
 26a:	6000 fda0      	braw c <___subsf3-0x3c>
 26e:	41f9 0000 0000 	lea 0 <___subsf3-0x48>,%a0
 274:	30bc 0000      	movew #0,%a0@
 278:	8087           	orl %d7,%d0
 27a:	4cdf 00fc      	moveml %sp@+,%d2-%d7
 27e:	4e5e           	unlk %fp
 280:	4e75           	rts
 282:	e288           	lsrl #1,%d0
 284:	6000 ffe8      	braw 26e <___addsf3+0x220>
 288:	7a01           	moveq #1,%d5
 28a:	202e 0008      	movel %fp@(8),%d0
 28e:	222e 000c      	movel %fp@(12),%d1
 292:	283c 7f80 0000 	movel #2139095040,%d4
 298:	2400           	movel %d0,%d2
 29a:	2601           	movel %d1,%d3
 29c:	0880 001f      	bclr #31,%d0
 2a0:	0881 001f      	bclr #31,%d1
 2a4:	b084           	cmpl %d4,%d0
 2a6:	6200 fd82      	bhiw 2a <___subsf3-0x1e>
 2aa:	b284           	cmpl %d4,%d1
 2ac:	6200 fd7c      	bhiw 2a <___subsf3-0x1e>
 2b0:	b782           	eorl %d3,%d2
 2b2:	6b00 000e      	bmiw 2c2 <___addsf3+0x274>
 2b6:	2e00           	movel %d0,%d7
 2b8:	0287 8000 0000 	andil #-2147483648,%d7
 2be:	6000 fd4c      	braw c <___subsf3-0x3c>
 2c2:	b081           	cmpl %d1,%d0
 2c4:	6700 fd64      	beqw 2a <___subsf3-0x1e>
 2c8:	2e00           	movel %d0,%d7
 2ca:	0287 8000 0000 	andil #-2147483648,%d7
 2d0:	b084           	cmpl %d4,%d0
 2d2:	6700 fd38      	beqw c <___subsf3-0x3c>
 2d6:	0847 001f      	bchg #31,%d7
 2da:	6000 fd30      	braw c <___subsf3-0x3c>

000002de <___mulsf3>:
 2de:	4e56 0000      	linkw %fp,#0
 2e2:	48e7 3f00      	moveml %d2-%d7,%sp@-
 2e6:	202e 0008      	movel %fp@(8),%d0
 2ea:	222e 000c      	movel %fp@(12),%d1
 2ee:	2e00           	movel %d0,%d7
 2f0:	b387           	eorl %d1,%d7
 2f2:	0287 8000 0000 	andil #-2147483648,%d7
 2f8:	2c3c 7f80 0000 	movel #2139095040,%d6
 2fe:	2a06           	movel %d6,%d5
 300:	4685           	notl %d5
 302:	283c 0080 0000 	movel #8388608,%d4
 308:	0880 001f      	bclr #31,%d0
 30c:	2400           	movel %d0,%d2
 30e:	6700 00ac      	beqw 3bc <___mulsf3+0xde>
 312:	0881 001f      	bclr #31,%d1
 316:	2601           	movel %d1,%d3
 318:	6700 009a      	beqw 3b4 <___mulsf3+0xd6>
 31c:	b086           	cmpl %d6,%d0
 31e:	6200 007c      	bhiw 39c <___mulsf3+0xbe>
 322:	6700 0084      	beqw 3a8 <___mulsf3+0xca>
 326:	b286           	cmpl %d6,%d1
 328:	6200 0072      	bhiw 39c <___mulsf3+0xbe>
 32c:	6700 0074      	beqw 3a2 <___mulsf3+0xc4>
 330:	c486           	andl %d6,%d2
 332:	6700 00ae      	beqw 3e2 <___mulsf3+0x104>
 336:	c085           	andl %d5,%d0
 338:	8084           	orl %d4,%d0
 33a:	4842           	swap %d2
 33c:	ee4a           	lsrw #7,%d2
 33e:	c686           	andl %d6,%d3
 340:	6700 00b4      	beqw 3f6 <___mulsf3+0x118>
 344:	c285           	andl %d5,%d1
 346:	8284           	orl %d4,%d1
 348:	4843           	swap %d3
 34a:	ee4b           	lsrw #7,%d3
 34c:	d443           	addw %d3,%d2
 34e:	0442 007f      	subiw #127,%d2
 352:	2c01           	movel %d1,%d6
 354:	2a00           	movel %d0,%d5
 356:	7800           	moveq #0,%d4
 358:	2204           	movel %d4,%d1
 35a:	2004           	movel %d4,%d0
 35c:	e18e           	lsll #8,%d6
 35e:	7617           	moveq #23,%d3
 360:	d281           	addl %d1,%d1
 362:	d180           	addxl %d0,%d0
 364:	e38e           	lsll #1,%d6
 366:	6400 0006      	bccw 36e <___mulsf3+0x90>
 36a:	d285           	addl %d5,%d1
 36c:	d184           	addxl %d4,%d0
 36e:	51cb fff0      	dbf %d3,360 <___mulsf3+0x82>
 372:	ec99           	rorl #6,%d1
 374:	4841           	swap %d1
 376:	3601           	movew %d1,%d3
 378:	0243 03ff      	andiw #1023,%d3
 37c:	0241 fd00      	andiw #-768,%d1
 380:	e188           	lsll #8,%d0
 382:	d080           	addl %d0,%d0
 384:	d080           	addl %d0,%d0
 386:	8043           	orw %d3,%d0
 388:	7a02           	moveq #2,%d5
 38a:	0800 0019      	btst #25,%d0
 38e:	6700 01c4      	beqw 554 <___divsf3+0x14a>
 392:	e288           	lsrl #1,%d0
 394:	e291           	roxrl #1,%d1
 396:	5242           	addqw #1,%d2
 398:	6000 01ba      	braw 554 <___divsf3+0x14a>
 39c:	7a02           	moveq #2,%d5
 39e:	6000 fc8a      	braw 2a <___subsf3-0x1e>
 3a2:	7a02           	moveq #2,%d5
 3a4:	6000 fc66      	braw c <___subsf3-0x3c>
 3a8:	7a02           	moveq #2,%d5
 3aa:	b286           	cmpl %d6,%d1
 3ac:	6200 fc7c      	bhiw 2a <___subsf3-0x1e>
 3b0:	6000 fc5a      	braw c <___subsf3-0x3c>
 3b4:	222e 0008      	movel %fp@(8),%d1
 3b8:	6000 0006      	braw 3c0 <___mulsf3+0xe2>
 3bc:	222e 000c      	movel %fp@(12),%d1
 3c0:	0881 001f      	bclr #31,%d1
 3c4:	0c81 7f80 0000 	cmpil #2139095040,%d1
 3ca:	6c00 fc5e      	bgew 2a <___subsf3-0x1e>
 3ce:	2007           	movel %d7,%d0
 3d0:	41f9 0000 0000 	lea 0 <___subsf3-0x48>,%a0
 3d6:	30bc 0000      	movew #0,%a0@
 3da:	4cdf 00fc      	moveml %sp@+,%d2-%d7
 3de:	4e5e           	unlk %fp
 3e0:	4e75           	rts
 3e2:	7401           	moveq #1,%d2
 3e4:	c085           	andl %d5,%d0
 3e6:	d080           	addl %d0,%d0
 3e8:	5342           	subqw #1,%d2
 3ea:	0800 0017      	btst #23,%d0
 3ee:	6600 ff4e      	bnew 33e <___mulsf3+0x60>
 3f2:	6000 fff2      	braw 3e6 <___mulsf3+0x108>
 3f6:	7601           	moveq #1,%d3
 3f8:	c285           	andl %d5,%d1
 3fa:	d281           	addl %d1,%d1
 3fc:	5343           	subqw #1,%d3
 3fe:	0801 0017      	btst #23,%d1
 402:	6600 ff48      	bnew 34c <___mulsf3+0x6e>
 406:	6000 fff2      	braw 3fa <___mulsf3+0x11c>

0000040a <___divsf3>:
 40a:	4e56 0000      	linkw %fp,#0
 40e:	48e7 3f00      	moveml %d2-%d7,%sp@-
 412:	202e 0008      	movel %fp@(8),%d0
 416:	222e 000c      	movel %fp@(12),%d1
 41a:	2e00           	movel %d0,%d7
 41c:	b387           	eorl %d1,%d7
 41e:	0287 8000 0000 	andil #-2147483648,%d7
 424:	2c3c 7f80 0000 	movel #2139095040,%d6
 42a:	2a06           	movel %d6,%d5
 42c:	4685           	notl %d5
 42e:	283c 0080 0000 	movel #8388608,%d4
 434:	0880 001f      	bclr #31,%d0
 438:	2400           	movel %d0,%d2
 43a:	6700 00a6      	beqw 4e2 <___divsf3+0xd8>
 43e:	0881 001f      	bclr #31,%d1
 442:	2601           	movel %d1,%d3
 444:	6700 00c6      	beqw 50c <___divsf3+0x102>
 448:	b086           	cmpl %d6,%d0
 44a:	6200 0084      	bhiw 4d0 <___divsf3+0xc6>
 44e:	6700 00cc      	beqw 51c <___divsf3+0x112>
 452:	b286           	cmpl %d6,%d1
 454:	6200 007a      	bhiw 4d0 <___divsf3+0xc6>
 458:	6700 0082      	beqw 4dc <___divsf3+0xd2>
 45c:	c486           	andl %d6,%d2
 45e:	6700 00cc      	beqw 52c <___divsf3+0x122>
 462:	c085           	andl %d5,%d0
 464:	8084           	orl %d4,%d0
 466:	4842           	swap %d2
 468:	ee4a           	lsrw #7,%d2
 46a:	c686           	andl %d6,%d3
 46c:	6700 00d2      	beqw 540 <___divsf3+0x136>
 470:	c285           	andl %d5,%d1
 472:	8284           	orl %d4,%d1
 474:	4843           	swap %d3
 476:	ee4b           	lsrw #7,%d3
 478:	9443           	subw %d3,%d2
 47a:	0642 007e      	addiw #126,%d2
 47e:	2047           	moveal %d7,%a0
 480:	7c00           	moveq #0,%d6
 482:	2e06           	movel %d6,%d7
 484:	7619           	moveq #25,%d3
 486:	b280           	cmpl %d0,%d1
 488:	6200 000a      	bhiw 494 <___divsf3+0x8a>
 48c:	07c6           	bset %d3,%d6
 48e:	9081           	subl %d1,%d0
 490:	6700 0028      	beqw 4ba <___divsf3+0xb0>
 494:	d080           	addl %d0,%d0
 496:	51cb ffee      	dbf %d3,486 <___divsf3+0x7c>
 49a:	7618           	moveq #24,%d3
 49c:	b280           	cmpl %d0,%d1
 49e:	6f00 000e      	blew 4ae <___divsf3+0xa4>
 4a2:	d080           	addl %d0,%d0
 4a4:	51cb fff6      	dbf %d3,49c <___divsf3+0x92>
 4a8:	7200           	moveq #0,%d1
 4aa:	6000 000e      	braw 4ba <___divsf3+0xb0>
 4ae:	7200           	moveq #0,%d1
 4b0:	0443 0018      	subiw #24,%d3
 4b4:	0643 001f      	addiw #31,%d3
 4b8:	07c1           	bset %d3,%d1
 4ba:	2006           	movel %d6,%d0
 4bc:	2e08           	movel %a0,%d7
 4be:	0800 0019      	btst #25,%d0
 4c2:	6700 0006      	beqw 4ca <___divsf3+0xc0>
 4c6:	e288           	lsrl #1,%d0
 4c8:	5242           	addqw #1,%d2
 4ca:	7a03           	moveq #3,%d5
 4cc:	6000 0086      	braw 554 <___divsf3+0x14a>
 4d0:	7a03           	moveq #3,%d5
 4d2:	6000 fb56      	braw 2a <___subsf3-0x1e>
 4d6:	7a03           	moveq #3,%d5
 4d8:	6000 fb32      	braw c <___subsf3-0x3c>
 4dc:	7a03           	moveq #3,%d5
 4de:	6000 fb3e      	braw 1e <___subsf3-0x2a>
 4e2:	7a03           	moveq #3,%d5
 4e4:	0281 7fff ffff 	andil #2147483647,%d1
 4ea:	6700 fb3e      	beqw 2a <___subsf3-0x1e>
 4ee:	0c81 7f80 0000 	cmpil #2139095040,%d1
 4f4:	6200 fb34      	bhiw 2a <___subsf3-0x1e>
 4f8:	2007           	movel %d7,%d0
 4fa:	41f9 0000 0000 	lea 0 <___subsf3-0x48>,%a0
 500:	30bc 0000      	movew #0,%a0@
 504:	4cdf 00fc      	moveml %sp@+,%d2-%d7
 508:	4e5e           	unlk %fp
 50a:	4e75           	rts
 50c:	7a03           	moveq #3,%d5
 50e:	0c80 7f80 0000 	cmpil #2139095040,%d0
 514:	6200 fb14      	bhiw 2a <___subsf3-0x1e>
 518:	6000 fb1c      	braw 36 <___subsf3-0x12>
 51c:	7a03           	moveq #3,%d5
 51e:	0c81 7f80 0000 	cmpil #2139095040,%d1
 524:	6c00 fb04      	bgew 2a <___subsf3-0x1e>
 528:	6000 fae2      	braw c <___subsf3-0x3c>
 52c:	7401           	moveq #1,%d2
 52e:	c085           	andl %d5,%d0
 530:	d080           	addl %d0,%d0
 532:	5342           	subqw #1,%d2
 534:	0800 0017      	btst #23,%d0
 538:	6600 ff30      	bnew 46a <___divsf3+0x60>
 53c:	6000 fff2      	braw 530 <___divsf3+0x126>
 540:	7601           	moveq #1,%d3
 542:	c285           	andl %d5,%d1
 544:	d281           	addl %d1,%d1
 546:	5343           	subqw #1,%d3
 548:	0801 0017      	btst #23,%d1
 54c:	6600 ff2a      	bnew 478 <___divsf3+0x6e>
 550:	6000 fff2      	braw 544 <___divsf3+0x13a>
 554:	0c42 ffe7      	cmpiw #-25,%d2
 558:	6d00 fac4      	bltw 1e <___subsf3-0x2a>
 55c:	7c00           	moveq #0,%d6
 55e:	0c42 0001      	cmpiw #1,%d2
 562:	6c00 001a      	bgew 57e <___divsf3+0x174>
 566:	5242           	addqw #1,%d2
 568:	e288           	lsrl #1,%d0
 56a:	e291           	roxrl #1,%d1
 56c:	e296           	roxrl #1,%d6
 56e:	0c42 0001      	cmpiw #1,%d2
 572:	6700 000a      	beqw 57e <___divsf3+0x174>
 576:	6000 ffee      	braw 566 <___divsf3+0x15c>
 57a:	6000 faa2      	braw 1e <___subsf3-0x2a>
 57e:	8286           	orl %d6,%d1
 580:	41fa 0020      	lea %pc@(5a2 <___divsf3+0x198>),%a0
 584:	43f9 0000 0000 	lea 0 <___subsf3-0x48>,%a1
 58a:	3c29 0006      	movew %a1@(6),%d6
 58e:	6700 0146      	beqw 6d6 <___cmpsf2+0x18>
 592:	0c46 0002      	cmpiw #2,%d6
 596:	6200 0192      	bhiw 72a <___cmpsf2+0x6c>
 59a:	6d00 018e      	bltw 72a <___cmpsf2+0x6c>
 59e:	6000 018a      	braw 72a <___cmpsf2+0x6c>
 5a2:	0c42 00ff      	cmpiw #255,%d2
 5a6:	6c00 fa64      	bgew c <___subsf3-0x3c>
 5aa:	3402           	movew %d2,%d2
 5ac:	6700 fa52      	beqw 0 <___subsf3-0x48>
 5b0:	ef4a           	lslw #7,%d2
 5b2:	0880 0017      	bclr #23,%d0
 5b6:	4840           	swap %d0
 5b8:	8042           	orw %d2,%d0
 5ba:	4840           	swap %d0
 5bc:	8087           	orl %d7,%d0
 5be:	41f9 0000 0000 	lea 0 <___subsf3-0x48>,%a0
 5c4:	30bc 0000      	movew #0,%a0@
 5c8:	4cdf 00fc      	moveml %sp@+,%d2-%d7
 5cc:	4e5e           	unlk %fp
 5ce:	4e75           	rts

000005d0 <___negsf2>:
 5d0:	4e56 0000      	linkw %fp,#0
 5d4:	48e7 3f00      	moveml %d2-%d7,%sp@-
 5d8:	7a04           	moveq #4,%d5
 5da:	202e 0008      	movel %fp@(8),%d0
 5de:	0840 001f      	bchg #31,%d0
 5e2:	2200           	movel %d0,%d1
 5e4:	0881 001f      	bclr #31,%d1
 5e8:	4a81           	tstl %d1
 5ea:	6700 002e      	beqw 61a <___negsf2+0x4a>
 5ee:	0c81 7f80 0000 	cmpil #2139095040,%d1
 5f4:	6d00 0012      	bltw 608 <___negsf2+0x38>
 5f8:	6200 fa30      	bhiw 2a <___subsf3-0x1e>
 5fc:	2e00           	movel %d0,%d7
 5fe:	0287 8000 0000 	andil #-2147483648,%d7
 604:	6000 fa06      	braw c <___subsf3-0x3c>
 608:	41f9 0000 0000 	lea 0 <___subsf3-0x48>,%a0
 60e:	30bc 0000      	movew #0,%a0@
 612:	4cdf 00fc      	moveml %sp@+,%d2-%d7
 616:	4e5e           	unlk %fp
 618:	4e75           	rts
 61a:	0880 001f      	bclr #31,%d0
 61e:	6000 ffe8      	braw 608 <___negsf2+0x38>

00000622 <___cmpsf2_internal>:
 622:	4e56 0000      	linkw %fp,#0
 626:	48e7 3f00      	moveml %d2-%d7,%sp@-
 62a:	7a05           	moveq #5,%d5
 62c:	202e 0008      	movel %fp@(8),%d0
 630:	222e 000c      	movel %fp@(12),%d1
 634:	2c00           	movel %d0,%d6
 636:	0280 7fff ffff 	andil #2147483647,%d0
 63c:	6700 0062      	beqw 6a0 <___cmpsf2_internal+0x7e>
 640:	0c80 7f80 0000 	cmpil #2139095040,%d0
 646:	6200 0068      	bhiw 6b0 <___cmpsf2_internal+0x8e>
 64a:	2e01           	movel %d1,%d7
 64c:	0281 7fff ffff 	andil #2147483647,%d1
 652:	6700 0054      	beqw 6a8 <___cmpsf2_internal+0x86>
 656:	0c81 7f80 0000 	cmpil #2139095040,%d1
 65c:	6200 0052      	bhiw 6b0 <___cmpsf2_internal+0x8e>
 660:	bd87           	eorl %d6,%d7
 662:	6a00 000c      	bplw 670 <___cmpsf2_internal+0x4e>
 666:	4a86           	tstl %d6
 668:	6a00 0022      	bplw 68c <___cmpsf2_internal+0x6a>
 66c:	6b00 0028      	bmiw 696 <___cmpsf2_internal+0x74>
 670:	4a86           	tstl %d6
 672:	6a00 0004      	bplw 678 <___cmpsf2_internal+0x56>
 676:	c141           	exg %d0,%d1
 678:	b280           	cmpl %d0,%d1
 67a:	6200 001a      	bhiw 696 <___cmpsf2_internal+0x74>
 67e:	6600 000c      	bnew 68c <___cmpsf2_internal+0x6a>
 682:	7000           	moveq #0,%d0
 684:	4cdf 00fc      	moveml %sp@+,%d2-%d7
 688:	4e5e           	unlk %fp
 68a:	4e75           	rts
 68c:	7001           	moveq #1,%d0
 68e:	4cdf 00fc      	moveml %sp@+,%d2-%d7
 692:	4e5e           	unlk %fp
 694:	4e75           	rts
 696:	70ff           	moveq #-1,%d0
 698:	4cdf 00fc      	moveml %sp@+,%d2-%d7
 69c:	4e5e           	unlk %fp
 69e:	4e75           	rts
 6a0:	0886 001f      	bclr #31,%d6
 6a4:	6000 ffa4      	braw 64a <___cmpsf2_internal+0x28>
 6a8:	0887 001f      	bclr #31,%d7
 6ac:	6000 ffb2      	braw 660 <___cmpsf2_internal+0x3e>
 6b0:	202e 0010      	movel %fp@(16),%d0
 6b4:	7e11           	moveq #17,%d7
 6b6:	7c01           	moveq #1,%d6
 6b8:	4ef9 0000 0000 	jmp 0 <___subsf3-0x48>

000006be <___cmpsf2>:
 6be:	4e56 0000      	linkw %fp,#0
 6c2:	4878 0001      	pea 1 <___subsf3-0x47>
 6c6:	2f2e 000c      	movel %fp@(12),%sp@-
 6ca:	2f2e 0008      	movel %fp@(8),%sp@-
 6ce:	6100 ff52      	bsrw 622 <___cmpsf2_internal>
 6d2:	4e5e           	unlk %fp
 6d4:	4e75           	rts
 6d6:	0800 0018      	btst #24,%d0
 6da:	6600 0012      	bnew 6ee <___cmpsf2+0x30>
 6de:	0c42 0001      	cmpiw #1,%d2
 6e2:	6700 000a      	beqw 6ee <___cmpsf2+0x30>
 6e6:	d281           	addl %d1,%d1
 6e8:	d180           	addxl %d0,%d0
 6ea:	51ca ffea      	dbf %d2,6d6 <___cmpsf2+0x18>
 6ee:	0800 0000      	btst #0,%d0
 6f2:	6700 001a      	beqw 70e <___cmpsf2+0x50>
 6f6:	4a81           	tstl %d1
 6f8:	6600 0010      	bnew 70a <___cmpsf2+0x4c>
 6fc:	2200           	movel %d0,%d1
 6fe:	0281 0000 0002 	andil #2,%d1
 704:	d081           	addl %d1,%d0
 706:	6000 0006      	braw 70e <___cmpsf2+0x50>
 70a:	7201           	moveq #1,%d1
 70c:	d081           	addl %d1,%d0
 70e:	e288           	lsrl #1,%d0
 710:	0800 0018      	btst #24,%d0
 714:	6700 0006      	beqw 71c <___cmpsf2+0x5e>
 718:	e288           	lsrl #1,%d0
 71a:	5242           	addqw #1,%d2
 71c:	0800 0017      	btst #23,%d0
 720:	6700 0004      	beqw 726 <___cmpsf2+0x68>
 724:	4ed0           	jmp %a0@
 726:	7400           	moveq #0,%d2
 728:	4ed0           	jmp %a0@
 72a:	4ed0           	jmp %a0@

_floatex.o:     file format a.out-zero-big


Disassembly of section .text:

00000000 <___clear_sticky_bit>:
   0:	41f9 0000 006c 	lea 6c <__fpCCR>,%a0
   6:	317c 0000 0004 	movew #0,%a0@(4)
   c:	4e75           	rts

0000000e <$_exception_handler>:
   e:	41f9 0000 006c 	lea 6c <__fpCCR>,%a0
  14:	3087           	movew %d7,%a0@
  16:	8f68 0004      	orw %d7,%a0@(4)
  1a:	3146 0008      	movew %d6,%a0@(8)
  1e:	3145 000a      	movew %d5,%a0@(10)
  22:	0c46 0001      	cmpiw #1,%d6
  26:	6700 001e      	beqw 46 <$_exception_handler+0x38>
  2a:	216e 0008 000c 	movel %fp@(8),%a0@(12)
  30:	216e 000c 0010 	movel %fp@(12),%a0@(16)
  36:	216e 0010 0014 	movel %fp@(16),%a0@(20)
  3c:	216e 0014 0018 	movel %fp@(20),%a0@(24)
  42:	6000 000e      	braw 52 <$_exception_handler+0x44>
  46:	216e 0008 000c 	movel %fp@(8),%a0@(12)
  4c:	216e 000c 0014 	movel %fp@(12),%a0@(20)
  52:	ce68 0002      	andw %a0@(2),%d7
  56:	6700 000a      	beqw 62 <$_exception_handler+0x54>
  5a:	4879 0000 006c 	pea 6c <__fpCCR>
  60:	4e4f           	trap #15
  62:	4cdf 00fc      	moveml %sp@+,%d2-%d7
  66:	4e5e           	unlk %fp
  68:	4e75           	rts
	...

Disassembly of section .text:

00000000 <___eqdf2>:
   0:	4e56 0000      	linkw %fp,#0
   4:	4878 0001      	pea 1 <___eqdf2+0x1>
   8:	2f2e 0014      	movel %fp@(20),%sp@-
   c:	2f2e 0010      	movel %fp@(16),%sp@-
  10:	2f2e 000c      	movel %fp@(12),%sp@-
  14:	2f2e 0008      	movel %fp@(8),%sp@-
  18:	4eb9 0000 0000 	jsr 0 <___eqdf2>
  1e:	4e5e           	unlk %fp
  20:	4e75           	rts
	...

_nedf2.o:     file format a.out-zero-big


Disassembly of section .text:

00000000 <___nedf2>:
   0:	4e56 0000      	linkw %fp,#0
   4:	4878 0001      	pea 1 <___nedf2+0x1>
   8:	2f2e 0014      	movel %fp@(20),%sp@-
   c:	2f2e 0010      	movel %fp@(16),%sp@-
  10:	2f2e 000c      	movel %fp@(12),%sp@-
  14:	2f2e 0008      	movel %fp@(8),%sp@-
  18:	4eb9 0000 0000 	jsr 0 <___nedf2>
  1e:	4e5e           	unlk %fp
  20:	4e75           	rts
	...

_gtdf2.o:     file format a.out-zero-big


Disassembly of section .text:

00000000 <___gtdf2>:
   0:	4e56 0000      	linkw %fp,#0
   4:	4878 ffff      	pea ffffffff <___gtdf2+0xffffffff>
   8:	2f2e 0014      	movel %fp@(20),%sp@-
   c:	2f2e 0010      	movel %fp@(16),%sp@-
  10:	2f2e 000c      	movel %fp@(12),%sp@-
  14:	2f2e 0008      	movel %fp@(8),%sp@-
  18:	4eb9 0000 0000 	jsr 0 <___gtdf2>
  1e:	4e5e           	unlk %fp
  20:	4e75           	rts
	...

_gedf2.o:     file format a.out-zero-big


Disassembly of section .text:

00000000 <___gedf2>:
   0:	4e56 0000      	linkw %fp,#0
   4:	4878 ffff      	pea ffffffff <___gedf2+0xffffffff>
   8:	2f2e 0014      	movel %fp@(20),%sp@-
   c:	2f2e 0010      	movel %fp@(16),%sp@-
  10:	2f2e 000c      	movel %fp@(12),%sp@-
  14:	2f2e 0008      	movel %fp@(8),%sp@-
  18:	4eb9 0000 0000 	jsr 0 <___gedf2>
  1e:	4e5e           	unlk %fp
  20:	4e75           	rts
	...

_ltdf2.o:     file format a.out-zero-big


Disassembly of section .text:

00000000 <___ltdf2>:
   0:	4e56 0000      	linkw %fp,#0
   4:	4878 0001      	pea 1 <___ltdf2+0x1>
   8:	2f2e 0014      	movel %fp@(20),%sp@-
   c:	2f2e 0010      	movel %fp@(16),%sp@-
  10:	2f2e 000c      	movel %fp@(12),%sp@-
  14:	2f2e 0008      	movel %fp@(8),%sp@-
  18:	4eb9 0000 0000 	jsr 0 <___ltdf2>
  1e:	4e5e           	unlk %fp
  20:	4e75           	rts
	...

_ledf2.o:     file format a.out-zero-big


Disassembly of section .text:

00000000 <___ledf2>:
   0:	4e56 0000      	linkw %fp,#0
   4:	4878 0001      	pea 1 <___ledf2+0x1>
   8:	2f2e 0014      	movel %fp@(20),%sp@-
   c:	2f2e 0010      	movel %fp@(16),%sp@-
  10:	2f2e 000c      	movel %fp@(12),%sp@-
  14:	2f2e 0008      	movel %fp@(8),%sp@-
  18:	4eb9 0000 0000 	jsr 0 <___ledf2>
  1e:	4e5e           	unlk %fp
  20:	4e75           	rts
	...

_eqsf2.o:     file format a.out-zero-big


Disassembly of section .text:

00000000 <___eqsf2>:
   0:	4e56 0000      	linkw %fp,#0
   4:	4878 0001      	pea 1 <___eqsf2+0x1>
   8:	2f2e 000c      	movel %fp@(12),%sp@-
   c:	2f2e 0008      	movel %fp@(8),%sp@-
  10:	4eb9 0000 0000 	jsr 0 <___eqsf2>
  16:	4e5e           	unlk %fp
  18:	4e75           	rts
	...

_nesf2.o:     file format a.out-zero-big


Disassembly of section .text:

00000000 <___nesf2>:
   0:	4e56 0000      	linkw %fp,#0
   4:	4878 0001      	pea 1 <___nesf2+0x1>
   8:	2f2e 000c      	movel %fp@(12),%sp@-
   c:	2f2e 0008      	movel %fp@(8),%sp@-
  10:	4eb9 0000 0000 	jsr 0 <___nesf2>
  16:	4e5e           	unlk %fp
  18:	4e75           	rts
	...

_gtsf2.o:     file format a.out-zero-big


Disassembly of section .text:

00000000 <___gtsf2>:
   0:	4e56 0000      	linkw %fp,#0
   4:	4878 ffff      	pea ffffffff <___gtsf2+0xffffffff>
   8:	2f2e 000c      	movel %fp@(12),%sp@-
   c:	2f2e 0008      	movel %fp@(8),%sp@-
  10:	4eb9 0000 0000 	jsr 0 <___gtsf2>
  16:	4e5e           	unlk %fp
  18:	4e75           	rts
	...

_gesf2.o:     file format a.out-zero-big


Disassembly of section .text:

00000000 <___gesf2>:
   0:	4e56 0000      	linkw %fp,#0
   4:	4878 ffff      	pea ffffffff <___gesf2+0xffffffff>
   8:	2f2e 000c      	movel %fp@(12),%sp@-
   c:	2f2e 0008      	movel %fp@(8),%sp@-
  10:	4eb9 0000 0000 	jsr 0 <___gesf2>
  16:	4e5e           	unlk %fp
  18:	4e75           	rts
	...

_ltsf2.o:     file format a.out-zero-big


Disassembly of section .text:

00000000 <___ltsf2>:
   0:	4e56 0000      	linkw %fp,#0
   4:	4878 0001      	pea 1 <___ltsf2+0x1>
   8:	2f2e 000c      	movel %fp@(12),%sp@-
   c:	2f2e 0008      	movel %fp@(8),%sp@-
  10:	4eb9 0000 0000 	jsr 0 <___ltsf2>
  16:	4e5e           	unlk %fp
  18:	4e75           	rts
	...

_lesf2.o:     file format a.out-zero-big


Disassembly of section .text:

00000000 <___lesf2>:
   0:	4e56 0000      	linkw %fp,#0
   4:	4878 0001      	pea 1 <___lesf2+0x1>
   8:	2f2e 000c      	movel %fp@(12),%sp@-
   c:	2f2e 0008      	movel %fp@(8),%sp@-
  10:	4eb9 0000 0000 	jsr 0 <___lesf2>
  16:	4e5e           	unlk %fp
  18:	4e75           	rts
	...

_muldi3.o:     file format a.out-zero-big


Disassembly of section .text:

00000000 <___muldi3>:
   0:	48e7 3f30      	moveml %d2-%d7/%a2-%a3,%sp@-
   4:	246f 0024      	moveal %sp@(36),%a2
   8:	206f 0028      	moveal %sp@(40),%a0
   c:	2a2f 0030      	movel %sp@(48),%d5
  10:	2008           	movel %a0,%d0
  12:	2205           	movel %d5,%d1
  14:	2400           	movel %d0,%d2
  16:	4840           	swap %d0
  18:	2601           	movel %d1,%d3
  1a:	4841           	swap %d1
  1c:	3802           	movew %d2,%d4
  1e:	c8c3           	muluw %d3,%d4
  20:	c4c1           	muluw %d1,%d2
  22:	c6c0           	muluw %d0,%d3
  24:	c2c0           	muluw %d0,%d1
  26:	2004           	movel %d4,%d0
  28:	b140           	eorw %d0,%d0
  2a:	4840           	swap %d0
  2c:	d480           	addl %d0,%d2
  2e:	d483           	addl %d3,%d2
  30:	6406           	bccs 38 <___muldi3+0x38>
  32:	0681 0001 0000 	addil #65536,%d1
  38:	4842           	swap %d2
  3a:	7000           	moveq #0,%d0
  3c:	3002           	movew %d2,%d0
  3e:	3404           	movew %d4,%d2
  40:	2c02           	movel %d2,%d6
  42:	d081           	addl %d1,%d0
  44:	2e00           	movel %d0,%d7
  46:	47f9 0000 0000 	lea 0 <___muldi3>,%a3
  4c:	2f08           	movel %a0,%sp@-
  4e:	2f2f 0030      	movel %sp@(48),%sp@-
  52:	4e93           	jsr %a3@
  54:	508f           	addql #8,%sp
  56:	2400           	movel %d0,%d2
  58:	2f0a           	movel %a2,%sp@-
  5a:	2f05           	movel %d5,%sp@-
  5c:	4e93           	jsr %a3@
  5e:	508f           	addql #8,%sp
  60:	d082           	addl %d2,%d0
  62:	d087           	addl %d7,%d0
  64:	2206           	movel %d6,%d1
  66:	4cdf 0cfc      	moveml %sp@+,%d2-%d7/%a2-%a3
  6a:	4e75           	rts

_negdi2.o:     file format a.out-zero-big


Disassembly of section .text:

00000000 <___negdi2>:
   0:	48e7 3800      	moveml %d2-%d4,%sp@-
   4:	242f 0014      	movel %sp@(20),%d2
   8:	262f 0010      	movel %sp@(16),%d3
   c:	4483           	negl %d3
   e:	4a82           	tstl %d2
  10:	56c4           	sne %d4
  12:	4884           	extw %d4
  14:	3044           	moveaw %d4,%a0
  16:	d1c3           	addal %d3,%a0
  18:	2008           	movel %a0,%d0
  1a:	2202           	movel %d2,%d1
  1c:	4481           	negl %d1
  1e:	4cdf 001c      	moveml %sp@+,%d2-%d4
  22:	4e75           	rts

_lshrdi3.o:     file format a.out-zero-big


Disassembly of section .text:

00000000 <___lshrdi3>:
   0:	48e7 3800      	moveml %d2-%d4,%sp@-
   4:	202f 0010      	movel %sp@(16),%d0
   8:	222f 0014      	movel %sp@(20),%d1
   c:	242f 0018      	movel %sp@(24),%d2
  10:	6718           	beqs 2a <___lshrdi3+0x2a>
  12:	7620           	moveq #32,%d3
  14:	9682           	subl %d2,%d3
  16:	4a83           	tstl %d3
  18:	6f16           	bles 30 <___lshrdi3+0x30>
  1a:	2800           	movel %d0,%d4
  1c:	e4ac           	lsrl %d2,%d4
  1e:	e7a8           	lsll %d3,%d0
  20:	2600           	movel %d0,%d3
  22:	e4a9           	lsrl %d2,%d1
  24:	8681           	orl %d1,%d3
  26:	2004           	movel %d4,%d0
  28:	2203           	movel %d3,%d1
  2a:	4cdf 001c      	moveml %sp@+,%d2-%d4
  2e:	4e75           	rts
  30:	7800           	moveq #0,%d4
  32:	4483           	negl %d3
  34:	e6a8           	lsrl %d3,%d0
  36:	2600           	movel %d0,%d3
  38:	2004           	movel %d4,%d0
  3a:	2203           	movel %d3,%d1
  3c:	60ec           	bras 2a <___lshrdi3+0x2a>
	...

_ashldi3.o:     file format a.out-zero-big


Disassembly of section .text:

00000000 <___ashldi3>:
   0:	48e7 3800      	moveml %d2-%d4,%sp@-
   4:	202f 0010      	movel %sp@(16),%d0
   8:	222f 0014      	movel %sp@(20),%d1
   c:	242f 0018      	movel %sp@(24),%d2
  10:	6716           	beqs 28 <___ashldi3+0x28>
  12:	7620           	moveq #32,%d3
  14:	9682           	subl %d2,%d3
  16:	4a83           	tstl %d3
  18:	6f14           	bles 2e <___ashldi3+0x2e>
  1a:	2801           	movel %d1,%d4
  1c:	e5ac           	lsll %d2,%d4
  1e:	e6a9           	lsrl %d3,%d1
  20:	e5a8           	lsll %d2,%d0
  22:	8280           	orl %d0,%d1
  24:	2001           	movel %d1,%d0
  26:	2204           	movel %d4,%d1
  28:	4cdf 001c      	moveml %sp@+,%d2-%d4
  2c:	4e75           	rts
  2e:	7800           	moveq #0,%d4
  30:	4483           	negl %d3
  32:	e7a9           	lsll %d3,%d1
  34:	2001           	movel %d1,%d0
  36:	2204           	movel %d4,%d1
  38:	60ee           	bras 28 <___ashldi3+0x28>
	...

_ashrdi3.o:     file format a.out-zero-big


Disassembly of section .text:

00000000 <___ashrdi3>:
   0:	48e7 3800      	moveml %d2-%d4,%sp@-
   4:	202f 0010      	movel %sp@(16),%d0
   8:	222f 0014      	movel %sp@(20),%d1
   c:	242f 0018      	movel %sp@(24),%d2
  10:	6718           	beqs 2a <___ashrdi3+0x2a>
  12:	7620           	moveq #32,%d3
  14:	9682           	subl %d2,%d3
  16:	2800           	movel %d0,%d4
  18:	4a83           	tstl %d3
  1a:	6f14           	bles 30 <___ashrdi3+0x30>
  1c:	e4a4           	asrl %d2,%d4
  1e:	e7a8           	lsll %d3,%d0
  20:	2600           	movel %d0,%d3
  22:	e4a9           	lsrl %d2,%d1
  24:	8681           	orl %d1,%d3
  26:	2004           	movel %d4,%d0
  28:	2203           	movel %d3,%d1
  2a:	4cdf 001c      	moveml %sp@+,%d2-%d4
  2e:	4e75           	rts
  30:	d884           	addl %d4,%d4
  32:	9984           	subxl %d4,%d4
  34:	4483           	negl %d3
  36:	e6a0           	asrl %d3,%d0
  38:	2600           	movel %d0,%d3
  3a:	2004           	movel %d4,%d0
  3c:	2203           	movel %d3,%d1
  3e:	60ea           	bras 2a <___ashrdi3+0x2a>

_cmpdi2.o:     file format a.out-zero-big


Disassembly of section .text:

00000000 <___cmpdi2>:
   0:	222f 0004      	movel %sp@(4),%d1
   4:	226f 0008      	moveal %sp@(8),%a1
   8:	202f 000c      	movel %sp@(12),%d0
   c:	206f 0010      	moveal %sp@(16),%a0
  10:	b081           	cmpl %d1,%d0
  12:	6e14           	bgts 28 <___cmpdi2+0x28>
  14:	6c04           	bges 1a <___cmpdi2+0x1a>
  16:	7002           	moveq #2,%d0
  18:	4e75           	rts
  1a:	b1c9           	cmpal %a1,%a0
  1c:	620e           	bhis 2c <___cmpdi2+0x2c>
  1e:	54c0           	scc %d0
  20:	4880           	extw %d0
  22:	48c0           	extl %d0
  24:	5480           	addql #2,%d0
  26:	4e75           	rts
  28:	7000           	moveq #0,%d0
  2a:	4e75           	rts
  2c:	7000           	moveq #0,%d0
  2e:	4e75           	rts

_ucmpdi2.o:     file format a.out-zero-big


Disassembly of section .text:

00000000 <___ucmpdi2>:
   0:	222f 0004      	movel %sp@(4),%d1
   4:	226f 0008      	moveal %sp@(8),%a1
   8:	202f 000c      	movel %sp@(12),%d0
   c:	206f 0010      	moveal %sp@(16),%a0
  10:	b081           	cmpl %d1,%d0
  12:	6214           	bhis 28 <___ucmpdi2+0x28>
  14:	6404           	bccs 1a <___ucmpdi2+0x1a>
  16:	7002           	moveq #2,%d0
  18:	4e75           	rts
  1a:	b1c9           	cmpal %a1,%a0
  1c:	620e           	bhis 2c <___ucmpdi2+0x2c>
  1e:	54c0           	scc %d0
  20:	4880           	extw %d0
  22:	48c0           	extl %d0
  24:	5480           	addql #2,%d0
  26:	4e75           	rts
  28:	7000           	moveq #0,%d0
  2a:	4e75           	rts
  2c:	7000           	moveq #0,%d0
  2e:	4e75           	rts

_clear_cache.o:     file format a.out-zero-big


Disassembly of section .text:

00000000 <___clear_cache>:
   0:	4e75           	rts
	...

_enable_execute_stack.o:     file format a.out-zero-big


Disassembly of section .text:

00000000 <___enable_execute_stack>:
   0:	4e75           	rts
	...

_trampoline.o:     file format a.out-zero-big


Disassembly of section .text:

00000000 <___trampoline>:
   0:	2ea8 0016      	movel %a0@(22),%sp@
   4:	2068 0012      	moveal %a0@(18),%a0
   8:	4e75           	rts
   a:	4e75           	rts

__main.o:     file format a.out-zero-big


Disassembly of section .text:

00000000 <___do_global_dtors>:
   0:	2279 0000 008c 	moveal 8c <___main+0x16>,%a1
   6:	2051           	moveal %a1@,%a0
   8:	b0fc 0000      	cmpaw #0,%a0
   c:	6718           	beqs 26 <___do_global_dtors+0x26>
   e:	5889           	addql #4,%a1
  10:	23c9 0000 008c 	movel %a1,8c <___main+0x16>
  16:	4e90           	jsr %a0@
  18:	2279 0000 008c 	moveal 8c <___main+0x16>,%a1
  1e:	2051           	moveal %a1@,%a0
  20:	b0fc 0000      	cmpaw #0,%a0
  24:	66e8           	bnes e <___do_global_dtors+0xe>
  26:	4e75           	rts

00000028 <___do_global_ctors>:
  28:	2f0a           	movel %a2,%sp@-
  2a:	2f02           	movel %d2,%sp@-
  2c:	2439 0000 0000 	movel 0 <___do_global_dtors>,%d2
  32:	70ff           	moveq #-1,%d0
  34:	b082           	cmpl %d2,%d0
  36:	672a           	beqs 62 <___do_global_ctors+0x3a>
  38:	4a82           	tstl %d2
  3a:	6714           	beqs 50 <___do_global_ctors+0x28>
  3c:	2442           	moveal %d2,%a2
  3e:	d5c2           	addal %d2,%a2
  40:	d5ca           	addal %a2,%a2
  42:	d5fc 0000 0004 	addal #4,%a2
  48:	2062           	moveal %a2@-,%a0
  4a:	4e90           	jsr %a0@
  4c:	5382           	subql #1,%d2
  4e:	66f8           	bnes 48 <___do_global_ctors+0x20>
  50:	487a ffae      	pea %pc@(0 <___do_global_dtors>)
  54:	4eb9 0000 0000 	jsr 0 <___do_global_dtors>
  5a:	588f           	addql #4,%sp
  5c:	241f           	movel %sp@+,%d2
  5e:	245f           	moveal %sp@+,%a2
  60:	4e75           	rts
  62:	41f9 0000 0004 	lea 4 <___do_global_dtors+0x4>,%a0
  68:	7400           	moveq #0,%d2
  6a:	2002           	movel %d2,%d0
  6c:	5280           	addql #1,%d0
  6e:	4a98           	tstl %a0@+
  70:	67c6           	beqs 38 <___do_global_ctors+0x10>
  72:	2400           	movel %d0,%d2
  74:	60f4           	bras 6a <___do_global_ctors+0x42>

00000076 <___main>:
  76:	4ab9 0000 0090 	tstl 90 <___main+0x1a>
  7c:	6702           	beqs 80 <___main+0xa>
  7e:	4e75           	rts
  80:	7001           	moveq #1,%d0
  82:	23c0 0000 0090 	movel %d0,90 <___main+0x1a>
  88:	609e           	bras 28 <___do_global_ctors>
	...

Disassembly of section .text:

00000000 <___absvsi2>:
   0:	202f 0004      	movel %sp@(4),%d0
   4:	6d02           	blts 8 <___absvsi2+0x8>
   6:	4e75           	rts
   8:	4480           	negl %d0
   a:	6afa           	bpls 6 <___absvsi2+0x6>
   c:	4eb9 0000 0000 	jsr 0 <___absvsi2>
	...

_absvdi2.o:     file format a.out-zero-big


Disassembly of section .text:

00000000 <___absvdi2>:
   0:	2f03           	movel %d3,%sp@-
   2:	2f02           	movel %d2,%sp@-
   4:	242f 000c      	movel %sp@(12),%d2
   8:	262f 0010      	movel %sp@(16),%d3
   c:	2002           	movel %d2,%d0
   e:	2203           	movel %d3,%d1
  10:	4a82           	tstl %d2
  12:	6b06           	bmis 1a <___absvdi2+0x1a>
  14:	241f           	movel %sp@+,%d2
  16:	261f           	movel %sp@+,%d3
  18:	4e75           	rts
  1a:	4481           	negl %d1
  1c:	4080           	negxl %d0
  1e:	6af4           	bpls 14 <___absvdi2+0x14>
  20:	4eb9 0000 0000 	jsr 0 <___absvdi2>
	...

_addvsi3.o:     file format a.out-zero-big


Disassembly of section .text:

00000000 <___addvsi3>:
   0:	222f 0004      	movel %sp@(4),%d1
   4:	206f 0008      	moveal %sp@(8),%a0
   8:	2008           	movel %a0,%d0
   a:	d081           	addl %d1,%d0
   c:	b0fc 0000      	cmpaw #0,%a0
  10:	6d0c           	blts 1e <___addvsi3+0x1e>
  12:	b280           	cmpl %d0,%d1
  14:	5ec1           	sgt %d1
  16:	4401           	negb %d1
  18:	4a01           	tstb %d1
  1a:	660a           	bnes 26 <___addvsi3+0x26>
  1c:	4e75           	rts
  1e:	b280           	cmpl %d0,%d1
  20:	5dc1           	slt %d1
  22:	4401           	negb %d1
  24:	60f2           	bras 18 <___addvsi3+0x18>
  26:	4eb9 0000 0000 	jsr 0 <___addvsi3>

_addvdi3.o:     file format a.out-zero-big


Disassembly of section .text:

00000000 <___addvdi3>:
   0:	2f03           	movel %d3,%sp@-
   2:	2f02           	movel %d2,%sp@-
   4:	206f 000c      	moveal %sp@(12),%a0
   8:	226f 0010      	moveal %sp@(16),%a1
   c:	242f 0014      	movel %sp@(20),%d2
  10:	262f 0018      	movel %sp@(24),%d3
  14:	2008           	movel %a0,%d0
  16:	2209           	movel %a1,%d1
  18:	d283           	addl %d3,%d1
  1a:	d182           	addxl %d2,%d0
  1c:	4a82           	tstl %d2
  1e:	6b18           	bmis 38 <___addvdi3+0x38>
  20:	b088           	cmpl %a0,%d0
  22:	6606           	bnes 2a <___addvdi3+0x2a>
  24:	b289           	cmpl %a1,%d1
  26:	55c2           	scs %d2
  28:	6002           	bras 2c <___addvdi3+0x2c>
  2a:	5dc2           	slt %d2
  2c:	4402           	negb %d2
  2e:	4a02           	tstb %d2
  30:	6616           	bnes 48 <___addvdi3+0x48>
  32:	241f           	movel %sp@+,%d2
  34:	261f           	movel %sp@+,%d3
  36:	4e75           	rts
  38:	b088           	cmpl %a0,%d0
  3a:	6606           	bnes 42 <___addvdi3+0x42>
  3c:	b289           	cmpl %a1,%d1
  3e:	52c2           	shi %d2
  40:	6002           	bras 44 <___addvdi3+0x44>
  42:	5ec2           	sgt %d2
  44:	4402           	negb %d2
  46:	60e6           	bras 2e <___addvdi3+0x2e>
  48:	4eb9 0000 0000 	jsr 0 <___addvdi3>
	...

_subvsi3.o:     file format a.out-zero-big


Disassembly of section .text:

00000000 <___subvsi3>:
   0:	222f 0004      	movel %sp@(4),%d1
   4:	206f 0008      	moveal %sp@(8),%a0
   8:	2001           	movel %d1,%d0
   a:	9088           	subl %a0,%d0
   c:	b0fc 0000      	cmpaw #0,%a0
  10:	6d0c           	blts 1e <___subvsi3+0x1e>
  12:	b280           	cmpl %d0,%d1
  14:	5dc1           	slt %d1
  16:	4401           	negb %d1
  18:	4a01           	tstb %d1
  1a:	660a           	bnes 26 <___subvsi3+0x26>
  1c:	4e75           	rts
  1e:	b280           	cmpl %d0,%d1
  20:	5ec1           	sgt %d1
  22:	4401           	negb %d1
  24:	60f2           	bras 18 <___subvsi3+0x18>
  26:	4eb9 0000 0000 	jsr 0 <___subvsi3>

_subvdi3.o:     file format a.out-zero-big


Disassembly of section .text:

00000000 <___subvdi3>:
   0:	48e7 3800      	moveml %d2-%d4,%sp@-
   4:	242f 0010      	movel %sp@(16),%d2
   8:	262f 0014      	movel %sp@(20),%d3
   c:	206f 0018      	moveal %sp@(24),%a0
  10:	226f 001c      	moveal %sp@(28),%a1
  14:	2002           	movel %d2,%d0
  16:	2203           	movel %d3,%d1
  18:	2808           	movel %a0,%d4
  1a:	9289           	subl %a1,%d1
  1c:	9184           	subxl %d4,%d0
  1e:	b0fc 0000      	cmpaw #0,%a0
  22:	6b18           	bmis 3c <___subvdi3+0x3c>
  24:	b082           	cmpl %d2,%d0
  26:	6606           	bnes 2e <___subvdi3+0x2e>
  28:	b283           	cmpl %d3,%d1
  2a:	52c2           	shi %d2
  2c:	6002           	bras 30 <___subvdi3+0x30>
  2e:	5ec2           	sgt %d2
  30:	4402           	negb %d2
  32:	4a02           	tstb %d2
  34:	6616           	bnes 4c <___subvdi3+0x4c>
  36:	4cdf 001c      	moveml %sp@+,%d2-%d4
  3a:	4e75           	rts
  3c:	b082           	cmpl %d2,%d0
  3e:	6606           	bnes 46 <___subvdi3+0x46>
  40:	b283           	cmpl %d3,%d1
  42:	55c2           	scs %d2
  44:	6002           	bras 48 <___subvdi3+0x48>
  46:	5dc2           	slt %d2
  48:	4402           	negb %d2
  4a:	60e6           	bras 32 <___subvdi3+0x32>
  4c:	4eb9 0000 0000 	jsr 0 <___subvdi3>
	...

_mulvsi3.o:     file format a.out-zero-big


Disassembly of section .text:

00000000 <___mulvsi3>:
   0:	2f2f 0008      	movel %sp@(8),%sp@-
   4:	5bc0           	smi %d0
   6:	4880           	extw %d0
   8:	48c0           	extl %d0
   a:	2f00           	movel %d0,%sp@-
   c:	2f2f 000c      	movel %sp@(12),%sp@-
  10:	5bc0           	smi %d0
  12:	4880           	extw %d0
  14:	48c0           	extl %d0
  16:	2f00           	movel %d0,%sp@-
  18:	4eb9 0000 0000 	jsr 0 <___mulvsi3>
  1e:	4fef 0010      	lea %sp@(16),%sp
  22:	2040           	moveal %d0,%a0
  24:	2001           	movel %d1,%d0
  26:	d080           	addl %d0,%d0
  28:	9180           	subxl %d0,%d0
  2a:	b1c0           	cmpal %d0,%a0
  2c:	6604           	bnes 32 <___mulvsi3+0x32>
  2e:	2001           	movel %d1,%d0
  30:	4e75           	rts
  32:	4eb9 0000 0000 	jsr 0 <___mulvsi3>

_mulvdi3.o:     file format a.out-zero-big


Disassembly of section .text:

00000000 <___mulvdi3>:
   0:	4fef ffe0      	lea %sp@(-32),%sp
   4:	48e7 3e3c      	moveml %d2-%d6/%a2-%a5,%sp@-
   8:	246f 0048      	moveal %sp@(72),%a2
   c:	266f 004c      	moveal %sp@(76),%a3
  10:	286f 0050      	moveal %sp@(80),%a4
  14:	2a6f 0054      	moveal %sp@(84),%a5
  18:	2a0a           	movel %a2,%d5
  1a:	280c           	movel %a4,%d4
  1c:	260d           	movel %a5,%d3
  1e:	2c0b           	movel %a3,%d6
  20:	200b           	movel %a3,%d0
  22:	d080           	addl %d0,%d0
  24:	9180           	subxl %d0,%d0
  26:	b085           	cmpl %d5,%d0
  28:	6634           	bnes 5e <___mulvdi3+0x5e>
  2a:	200d           	movel %a5,%d0
  2c:	d080           	addl %d0,%d0
  2e:	9180           	subxl %d0,%d0
  30:	b084           	cmpl %d4,%d0
  32:	6600 00be      	bnew f2 <___mulvdi3+0xf2>
  36:	2f0d           	movel %a5,%sp@-
  38:	5bc0           	smi %d0
  3a:	4880           	extw %d0
  3c:	48c0           	extl %d0
  3e:	2f00           	movel %d0,%sp@-
  40:	2f0b           	movel %a3,%sp@-
  42:	5bc0           	smi %d0
  44:	4880           	extw %d0
  46:	48c0           	extl %d0
  48:	2f00           	movel %d0,%sp@-
  4a:	4eb9 0000 0000 	jsr 0 <___mulvdi3>
  50:	4fef 0010      	lea %sp@(16),%sp
  54:	4cdf 3c7c      	moveml %sp@+,%d2-%d6/%a2-%a5
  58:	4fef 0020      	lea %sp@(32),%sp
  5c:	4e75           	rts
  5e:	2c0d           	movel %a5,%d6
  60:	2003           	movel %d3,%d0
  62:	d080           	addl %d0,%d0
  64:	9180           	subxl %d0,%d0
  66:	b084           	cmpl %d4,%d0
  68:	6600 013a      	bnew 1a4 <___mulvdi3+0x1a4>
  6c:	2f4d 0030      	movel %a5,%sp@(48)
  70:	7000           	moveq #0,%d0
  72:	2f40 002c      	movel %d0,%sp@(44)
  76:	49f9 0000 0000 	lea 0 <___mulvdi3>,%a4
  7c:	2f0b           	movel %a3,%sp@-
  7e:	42a7           	clrl %sp@-
  80:	2f2f 0038      	movel %sp@(56),%sp@-
  84:	2f2f 0038      	movel %sp@(56),%sp@-
  88:	4e94           	jsr %a4@
  8a:	4fef 0010      	lea %sp@(16),%sp
  8e:	2800           	movel %d0,%d4
  90:	2f41 0034      	movel %d1,%sp@(52)
  94:	2f2f 0030      	movel %sp@(48),%sp@-
  98:	2f2f 0030      	movel %sp@(48),%sp@-
  9c:	2f05           	movel %d5,%sp@-
  9e:	42a7           	clrl %sp@-
  a0:	4e94           	jsr %a4@
  a2:	4fef 0010      	lea %sp@(16),%sp
  a6:	2400           	movel %d0,%d2
  a8:	2601           	movel %d1,%d3
  aa:	4a85           	tstl %d5
  ac:	6d3c           	blts ea <___mulvdi3+0xea>
  ae:	4a86           	tstl %d6
  b0:	6d30           	blts e2 <___mulvdi3+0xe2>
  b2:	2f44 0040      	movel %d4,%sp@(64)
  b6:	7000           	moveq #0,%d0
  b8:	2f40 003c      	movel %d0,%sp@(60)
  bc:	202f 003c      	movel %sp@(60),%d0
  c0:	d6af 0040      	addl %sp@(64),%d3
  c4:	d580           	addxl %d0,%d2
  c6:	2003           	movel %d3,%d0
  c8:	d080           	addl %d0,%d0
  ca:	9180           	subxl %d0,%d0
  cc:	b480           	cmpl %d0,%d2
  ce:	6600 00ce      	bnew 19e <___mulvdi3+0x19e>
  d2:	2003           	movel %d3,%d0
  d4:	222f 0034      	movel %sp@(52),%d1
  d8:	4cdf 3c7c      	moveml %sp@+,%d2-%d6/%a2-%a5
  dc:	4fef 0020      	lea %sp@(32),%sp
  e0:	4e75           	rts
  e2:	200a           	movel %a2,%d0
  e4:	968b           	subl %a3,%d3
  e6:	9580           	subxl %d0,%d2
  e8:	60c8           	bras b2 <___mulvdi3+0xb2>
  ea:	948d           	subl %a5,%d2
  ec:	4a86           	tstl %d6
  ee:	6cc2           	bges b2 <___mulvdi3+0xb2>
  f0:	60f0           	bras e2 <___mulvdi3+0xe2>
  f2:	91c8           	subal %a0,%a0
  f4:	45f9 0000 0000 	lea 0 <___mulvdi3>,%a2
  fa:	2f0b           	movel %a3,%sp@-
  fc:	2f08           	movel %a0,%sp@-
  fe:	2f0d           	movel %a5,%sp@-
 100:	42a7           	clrl %sp@-
 102:	2f48 0038      	movel %a0,%sp@(56)
 106:	2f4b 0034      	movel %a3,%sp@(52)
 10a:	4e92           	jsr %a2@
 10c:	4fef 0010      	lea %sp@(16),%sp
 110:	2a00           	movel %d0,%d5
 112:	2f41 002c      	movel %d1,%sp@(44)
 116:	206f 0028      	moveal %sp@(40),%a0
 11a:	226f 0024      	moveal %sp@(36),%a1
 11e:	2f09           	movel %a1,%sp@-
 120:	2f08           	movel %a0,%sp@-
 122:	2f04           	movel %d4,%sp@-
 124:	42a7           	clrl %sp@-
 126:	4e92           	jsr %a2@
 128:	4fef 0010      	lea %sp@(16),%sp
 12c:	2400           	movel %d0,%d2
 12e:	2601           	movel %d1,%d3
 130:	4a84           	tstl %d4
 132:	6d3a           	blts 16e <___mulvdi3+0x16e>
 134:	4a86           	tstl %d6
 136:	6d2e           	blts 166 <___mulvdi3+0x166>
 138:	2f45 0038      	movel %d5,%sp@(56)
 13c:	7000           	moveq #0,%d0
 13e:	2f40 0034      	movel %d0,%sp@(52)
 142:	202f 0034      	movel %sp@(52),%d0
 146:	d6af 0038      	addl %sp@(56),%d3
 14a:	d580           	addxl %d0,%d2
 14c:	2003           	movel %d3,%d0
 14e:	d080           	addl %d0,%d0
 150:	9180           	subxl %d0,%d0
 152:	b480           	cmpl %d0,%d2
 154:	6648           	bnes 19e <___mulvdi3+0x19e>
 156:	2003           	movel %d3,%d0
 158:	222f 002c      	movel %sp@(44),%d1
 15c:	4cdf 3c7c      	moveml %sp@+,%d2-%d6/%a2-%a5
 160:	4fef 0020      	lea %sp@(32),%sp
 164:	4e75           	rts
 166:	200c           	movel %a4,%d0
 168:	968d           	subl %a5,%d3
 16a:	9580           	subxl %d0,%d2
 16c:	60ca           	bras 138 <___mulvdi3+0x138>
 16e:	948b           	subl %a3,%d2
 170:	4a86           	tstl %d6
 172:	6cc4           	bges 138 <___mulvdi3+0x138>
 174:	60f0           	bras 166 <___mulvdi3+0x166>
 176:	70ff           	moveq #-1,%d0
 178:	4a84           	tstl %d4
 17a:	6d00 008a      	bltw 206 <___mulvdi3+0x206>
 17e:	b085           	cmpl %d5,%d0
 180:	661c           	bnes 19e <___mulvdi3+0x19e>
 182:	4a84           	tstl %d4
 184:	6618           	bnes 19e <___mulvdi3+0x19e>
 186:	2f0b           	movel %a3,%sp@-
 188:	42a7           	clrl %sp@-
 18a:	2f0d           	movel %a5,%sp@-
 18c:	42a7           	clrl %sp@-
 18e:	4eb9 0000 0000 	jsr 0 <___mulvdi3>
 194:	4fef 0010      	lea %sp@(16),%sp
 198:	908d           	subl %a5,%d0
 19a:	6b00 feb8      	bmiw 54 <___mulvdi3+0x54>
 19e:	4eb9 0000 0000 	jsr 0 <___mulvdi3>
 1a4:	4a85           	tstl %d5
 1a6:	6dce           	blts 176 <___mulvdi3+0x176>
 1a8:	4a84           	tstl %d4
 1aa:	6d30           	blts 1dc <___mulvdi3+0x1dc>
 1ac:	4a85           	tstl %d5
 1ae:	66ee           	bnes 19e <___mulvdi3+0x19e>
 1b0:	4a84           	tstl %d4
 1b2:	66ea           	bnes 19e <___mulvdi3+0x19e>
 1b4:	2f0b           	movel %a3,%sp@-
 1b6:	42a7           	clrl %sp@-
 1b8:	2f0d           	movel %a5,%sp@-
 1ba:	42a7           	clrl %sp@-
 1bc:	4eb9 0000 0000 	jsr 0 <___mulvdi3>
 1c2:	4fef 0010      	lea %sp@(16),%sp
 1c6:	2040           	moveal %d0,%a0
 1c8:	2241           	moveal %d1,%a1
 1ca:	b0fc 0000      	cmpaw #0,%a0
 1ce:	6bce           	bmis 19e <___mulvdi3+0x19e>
 1d0:	2008           	movel %a0,%d0
 1d2:	4cdf 3c7c      	moveml %sp@+,%d2-%d6/%a2-%a5
 1d6:	4fef 0020      	lea %sp@(32),%sp
 1da:	4e75           	rts
 1dc:	4a85           	tstl %d5
 1de:	66be           	bnes 19e <___mulvdi3+0x19e>
 1e0:	70ff           	moveq #-1,%d0
 1e2:	b084           	cmpl %d4,%d0
 1e4:	66b8           	bnes 19e <___mulvdi3+0x19e>
 1e6:	2f0b           	movel %a3,%sp@-
 1e8:	42a7           	clrl %sp@-
 1ea:	2f0d           	movel %a5,%sp@-
 1ec:	42a7           	clrl %sp@-
 1ee:	4eb9 0000 0000 	jsr 0 <___mulvdi3>
 1f4:	4fef 0010      	lea %sp@(16),%sp
 1f8:	908b           	subl %a3,%d0
 1fa:	6aa2           	bpls 19e <___mulvdi3+0x19e>
 1fc:	4cdf 3c7c      	moveml %sp@+,%d2-%d6/%a2-%a5
 200:	4fef 0020      	lea %sp@(32),%sp
 204:	4e75           	rts
 206:	b085           	cmpl %d5,%d0
 208:	6694           	bnes 19e <___mulvdi3+0x19e>
 20a:	b084           	cmpl %d4,%d0
 20c:	6690           	bnes 19e <___mulvdi3+0x19e>
 20e:	2f0b           	movel %a3,%sp@-
 210:	42a7           	clrl %sp@-
 212:	2f0d           	movel %a5,%sp@-
 214:	42a7           	clrl %sp@-
 216:	4eb9 0000 0000 	jsr 0 <___mulvdi3>
 21c:	4fef 0010      	lea %sp@(16),%sp
 220:	908b           	subl %a3,%d0
 222:	908d           	subl %a5,%d0
 224:	6b00 ff78      	bmiw 19e <___mulvdi3+0x19e>
 228:	4cdf 3c7c      	moveml %sp@+,%d2-%d6/%a2-%a5
 22c:	4fef 0020      	lea %sp@(32),%sp
 230:	4e75           	rts
	...

_negvsi2.o:     file format a.out-zero-big


Disassembly of section .text:

00000000 <___negvsi2>:
   0:	222f 0004      	movel %sp@(4),%d1
   4:	2001           	movel %d1,%d0
   6:	4480           	negl %d0
   8:	4a81           	tstl %d1
   a:	6d0c           	blts 18 <___negvsi2+0x18>
   c:	4a80           	tstl %d0
   e:	5ec1           	sgt %d1
  10:	4401           	negb %d1
  12:	4a01           	tstb %d1
  14:	660c           	bnes 22 <___negvsi2+0x22>
  16:	4e75           	rts
  18:	2200           	movel %d0,%d1
  1a:	d281           	addl %d1,%d1
  1c:	9381           	subxl %d1,%d1
  1e:	4481           	negl %d1
  20:	60f0           	bras 12 <___negvsi2+0x12>
  22:	4eb9 0000 0000 	jsr 0 <___negvsi2>

_negvdi2.o:     file format a.out-zero-big


Disassembly of section .text:

00000000 <___negvdi2>:
   0:	2f03           	movel %d3,%sp@-
   2:	2f02           	movel %d2,%sp@-
   4:	242f 000c      	movel %sp@(12),%d2
   8:	262f 0010      	movel %sp@(16),%d3
   c:	2002           	movel %d2,%d0
   e:	2203           	movel %d3,%d1
  10:	4481           	negl %d1
  12:	4080           	negxl %d0
  14:	4a82           	tstl %d2
  16:	6b18           	bmis 30 <___negvdi2+0x30>
  18:	4a80           	tstl %d0
  1a:	6606           	bnes 22 <___negvdi2+0x22>
  1c:	4a81           	tstl %d1
  1e:	52c2           	shi %d2
  20:	6002           	bras 24 <___negvdi2+0x24>
  22:	5ec2           	sgt %d2
  24:	4402           	negb %d2
  26:	4a02           	tstb %d2
  28:	6610           	bnes 3a <___negvdi2+0x3a>
  2a:	241f           	movel %sp@+,%d2
  2c:	261f           	movel %sp@+,%d3
  2e:	4e75           	rts
  30:	2400           	movel %d0,%d2
  32:	d482           	addl %d2,%d2
  34:	9582           	subxl %d2,%d2
  36:	4482           	negl %d2
  38:	60ec           	bras 26 <___negvdi2+0x26>
  3a:	4eb9 0000 0000 	jsr 0 <___negvdi2>

_ctors.o:     file format a.out-zero-big


_ffssi2.o:     file format a.out-zero-big


Disassembly of section .text:

00000000 <___ffssi2>:
   0:	202f 0004      	movel %sp@(4),%d0
   4:	674c           	beqs 52 <___ffssi2+0x52>
   6:	2200           	movel %d0,%d1
   8:	4481           	negl %d1
   a:	c280           	andl %d0,%d1
   c:	0c81 0000 ffff 	cmpil #65535,%d1
  12:	621e           	bhis 32 <___ffssi2+0x32>
  14:	0c81 0000 00ff 	cmpil #255,%d1
  1a:	623a           	bhis 56 <___ffssi2+0x56>
  1c:	7000           	moveq #0,%d0
  1e:	93c9           	subal %a1,%a1
  20:	e0a9           	lsrl %d0,%d1
  22:	41f9 0000 0000 	lea 0 <___ffssi2>,%a0
  28:	7000           	moveq #0,%d0
  2a:	1030 1800      	moveb %a0@(00000000,%d1:l),%d0
  2e:	d089           	addl %a1,%d0
  30:	4e75           	rts
  32:	0c81 00ff ffff 	cmpil #16777215,%d1
  38:	6234           	bhis 6e <___ffssi2+0x6e>
  3a:	7010           	moveq #16,%d0
  3c:	327c 0010      	moveaw #16,%a1
  40:	e0a9           	lsrl %d0,%d1
  42:	41f9 0000 0000 	lea 0 <___ffssi2>,%a0
  48:	7000           	moveq #0,%d0
  4a:	1030 1800      	moveb %a0@(00000000,%d1:l),%d0
  4e:	d089           	addl %a1,%d0
  50:	4e75           	rts
  52:	7000           	moveq #0,%d0
  54:	4e75           	rts
  56:	7008           	moveq #8,%d0
  58:	327c 0008      	moveaw #8,%a1
  5c:	e0a9           	lsrl %d0,%d1
  5e:	41f9 0000 0000 	lea 0 <___ffssi2>,%a0
  64:	7000           	moveq #0,%d0
  66:	1030 1800      	moveb %a0@(00000000,%d1:l),%d0
  6a:	d089           	addl %a1,%d0
  6c:	4e75           	rts
  6e:	7018           	moveq #24,%d0
  70:	327c 0018      	moveaw #24,%a1
  74:	e0a9           	lsrl %d0,%d1
  76:	41f9 0000 0000 	lea 0 <___ffssi2>,%a0
  7c:	7000           	moveq #0,%d0
  7e:	1030 1800      	moveb %a0@(00000000,%d1:l),%d0
  82:	d089           	addl %a1,%d0
  84:	4e75           	rts
	...

_ffsdi2.o:     file format a.out-zero-big


Disassembly of section .text:

00000000 <___ffsdi2>:
   0:	2f02           	movel %d2,%sp@-
   2:	222f 0008      	movel %sp@(8),%d1
   6:	202f 000c      	movel %sp@(12),%d0
   a:	6736           	beqs 42 <___ffsdi2+0x42>
   c:	91c8           	subal %a0,%a0
   e:	2200           	movel %d0,%d1
  10:	4481           	negl %d1
  12:	c280           	andl %d0,%d1
  14:	0c81 0000 ffff 	cmpil #65535,%d1
  1a:	623e           	bhis 5a <___ffsdi2+0x5a>
  1c:	0c81 0000 00ff 	cmpil #255,%d1
  22:	6276           	bhis 9a <___ffsdi2+0x9a>
  24:	7400           	moveq #0,%d2
  26:	7000           	moveq #0,%d0
  28:	d088           	addl %a0,%d0
  2a:	e4a9           	lsrl %d2,%d1
  2c:	41f9 0000 0000 	lea 0 <___ffsdi2>,%a0
  32:	1230 1800      	moveb %a0@(00000000,%d1:l),%d1
  36:	0281 0000 00ff 	andil #255,%d1
  3c:	d081           	addl %d1,%d0
  3e:	241f           	movel %sp@+,%d2
  40:	4e75           	rts
  42:	4a81           	tstl %d1
  44:	6770           	beqs b6 <___ffsdi2+0xb6>
  46:	2001           	movel %d1,%d0
  48:	307c 0020      	moveaw #32,%a0
  4c:	2200           	movel %d0,%d1
  4e:	4481           	negl %d1
  50:	c280           	andl %d0,%d1
  52:	0c81 0000 ffff 	cmpil #65535,%d1
  58:	63c2           	blss 1c <___ffsdi2+0x1c>
  5a:	0c81 00ff ffff 	cmpil #16777215,%d1
  60:	621c           	bhis 7e <___ffsdi2+0x7e>
  62:	7410           	moveq #16,%d2
  64:	7010           	moveq #16,%d0
  66:	d088           	addl %a0,%d0
  68:	e4a9           	lsrl %d2,%d1
  6a:	41f9 0000 0000 	lea 0 <___ffsdi2>,%a0
  70:	1230 1800      	moveb %a0@(00000000,%d1:l),%d1
  74:	0281 0000 00ff 	andil #255,%d1
  7a:	d081           	addl %d1,%d0
  7c:	60c0           	bras 3e <___ffsdi2+0x3e>
  7e:	7418           	moveq #24,%d2
  80:	7018           	moveq #24,%d0
  82:	d088           	addl %a0,%d0
  84:	e4a9           	lsrl %d2,%d1
  86:	41f9 0000 0000 	lea 0 <___ffsdi2>,%a0
  8c:	1230 1800      	moveb %a0@(00000000,%d1:l),%d1
  90:	0281 0000 00ff 	andil #255,%d1
  96:	d081           	addl %d1,%d0
  98:	60a4           	bras 3e <___ffsdi2+0x3e>
  9a:	7408           	moveq #8,%d2
  9c:	7008           	moveq #8,%d0
  9e:	d088           	addl %a0,%d0
  a0:	e4a9           	lsrl %d2,%d1
  a2:	41f9 0000 0000 	lea 0 <___ffsdi2>,%a0
  a8:	1230 1800      	moveb %a0@(00000000,%d1:l),%d1
  ac:	0281 0000 00ff 	andil #255,%d1
  b2:	d081           	addl %d1,%d0
  b4:	6088           	bras 3e <___ffsdi2+0x3e>
  b6:	7000           	moveq #0,%d0
  b8:	241f           	movel %sp@+,%d2
  ba:	4e75           	rts

_clz.o:     file format a.out-zero-big


Disassembly of section .text:

00000000 <___clz_tab>:
   0:	0001 0202      	orib #2,%d1
   4:	0303           	btst %d1,%d3
   6:	0303           	btst %d1,%d3
   8:	0404 0404      	subib #4,%d4
   c:	0404 0404      	subib #4,%d4
  10:	0505           	btst %d2,%d5
  12:	0505           	btst %d2,%d5
  14:	0505           	btst %d2,%d5
  16:	0505           	btst %d2,%d5
  18:	0505           	btst %d2,%d5
  1a:	0505           	btst %d2,%d5
  1c:	0505           	btst %d2,%d5
  1e:	0505           	btst %d2,%d5
  20:	0606 0606      	addib #6,%d6
  24:	0606 0606      	addib #6,%d6
  28:	0606 0606      	addib #6,%d6
  2c:	0606 0606      	addib #6,%d6
  30:	0606 0606      	addib #6,%d6
  34:	0606 0606      	addib #6,%d6
  38:	0606 0606      	addib #6,%d6
  3c:	0606 0606      	addib #6,%d6
  40:	0707           	btst %d3,%d7
  42:	0707           	btst %d3,%d7
  44:	0707           	btst %d3,%d7
  46:	0707           	btst %d3,%d7
  48:	0707           	btst %d3,%d7
  4a:	0707           	btst %d3,%d7
  4c:	0707           	btst %d3,%d7
  4e:	0707           	btst %d3,%d7
  50:	0707           	btst %d3,%d7
  52:	0707           	btst %d3,%d7
  54:	0707           	btst %d3,%d7
  56:	0707           	btst %d3,%d7
  58:	0707           	btst %d3,%d7
  5a:	0707           	btst %d3,%d7
  5c:	0707           	btst %d3,%d7
  5e:	0707           	btst %d3,%d7
  60:	0707           	btst %d3,%d7
  62:	0707           	btst %d3,%d7
  64:	0707           	btst %d3,%d7
  66:	0707           	btst %d3,%d7
  68:	0707           	btst %d3,%d7
  6a:	0707           	btst %d3,%d7
  6c:	0707           	btst %d3,%d7
  6e:	0707           	btst %d3,%d7
  70:	0707           	btst %d3,%d7
  72:	0707           	btst %d3,%d7
  74:	0707           	btst %d3,%d7
  76:	0707           	btst %d3,%d7
  78:	0707           	btst %d3,%d7
  7a:	0707           	btst %d3,%d7
  7c:	0707           	btst %d3,%d7
  7e:	0707           	btst %d3,%d7
  80:	0808           	.short 0x0808
  82:	0808           	.short 0x0808
  84:	0808           	.short 0x0808
  86:	0808           	.short 0x0808
  88:	0808           	.short 0x0808
  8a:	0808           	.short 0x0808
  8c:	0808           	.short 0x0808
  8e:	0808           	.short 0x0808
  90:	0808           	.short 0x0808
  92:	0808           	.short 0x0808
  94:	0808           	.short 0x0808
  96:	0808           	.short 0x0808
  98:	0808           	.short 0x0808
  9a:	0808           	.short 0x0808
  9c:	0808           	.short 0x0808
  9e:	0808           	.short 0x0808
  a0:	0808           	.short 0x0808
  a2:	0808           	.short 0x0808
  a4:	0808           	.short 0x0808
  a6:	0808           	.short 0x0808
  a8:	0808           	.short 0x0808
  aa:	0808           	.short 0x0808
  ac:	0808           	.short 0x0808
  ae:	0808           	.short 0x0808
  b0:	0808           	.short 0x0808
  b2:	0808           	.short 0x0808
  b4:	0808           	.short 0x0808
  b6:	0808           	.short 0x0808
  b8:	0808           	.short 0x0808
  ba:	0808           	.short 0x0808
  bc:	0808           	.short 0x0808
  be:	0808           	.short 0x0808
  c0:	0808           	.short 0x0808
  c2:	0808           	.short 0x0808
  c4:	0808           	.short 0x0808
  c6:	0808           	.short 0x0808
  c8:	0808           	.short 0x0808
  ca:	0808           	.short 0x0808
  cc:	0808           	.short 0x0808
  ce:	0808           	.short 0x0808
  d0:	0808           	.short 0x0808
  d2:	0808           	.short 0x0808
  d4:	0808           	.short 0x0808
  d6:	0808           	.short 0x0808
  d8:	0808           	.short 0x0808
  da:	0808           	.short 0x0808
  dc:	0808           	.short 0x0808
  de:	0808           	.short 0x0808
  e0:	0808           	.short 0x0808
  e2:	0808           	.short 0x0808
  e4:	0808           	.short 0x0808
  e6:	0808           	.short 0x0808
  e8:	0808           	.short 0x0808
  ea:	0808           	.short 0x0808
  ec:	0808           	.short 0x0808
  ee:	0808           	.short 0x0808
  f0:	0808           	.short 0x0808
  f2:	0808           	.short 0x0808
  f4:	0808           	.short 0x0808
  f6:	0808           	.short 0x0808
  f8:	0808           	.short 0x0808
  fa:	0808           	.short 0x0808
  fc:	0808           	.short 0x0808
  fe:	0808           	Address 0x00000100 is out of bounds.
.short 0x0808

_clzsi2.o:     file format a.out-zero-big


Disassembly of section .text:

00000000 <___clzsi2>:
   0:	2f02           	movel %d2,%sp@-
   2:	222f 0008      	movel %sp@(8),%d1
   6:	0c81 0000 ffff 	cmpil #65535,%d1
   c:	6224           	bhis 32 <___clzsi2+0x32>
   e:	0c81 0000 00ff 	cmpil #255,%d1
  14:	635c           	blss 72 <___clzsi2+0x72>
  16:	7018           	moveq #24,%d0
  18:	7408           	moveq #8,%d2
  1a:	e4a9           	lsrl %d2,%d1
  1c:	41f9 0000 0000 	lea 0 <___clzsi2>,%a0
  22:	1230 1800      	moveb %a0@(00000000,%d1:l),%d1
  26:	0281 0000 00ff 	andil #255,%d1
  2c:	9081           	subl %d1,%d0
  2e:	241f           	movel %sp@+,%d2
  30:	4e75           	rts
  32:	0c81 00ff ffff 	cmpil #16777215,%d1
  38:	621c           	bhis 56 <___clzsi2+0x56>
  3a:	7010           	moveq #16,%d0
  3c:	7410           	moveq #16,%d2
  3e:	e4a9           	lsrl %d2,%d1
  40:	41f9 0000 0000 	lea 0 <___clzsi2>,%a0
  46:	1230 1800      	moveb %a0@(00000000,%d1:l),%d1
  4a:	0281 0000 00ff 	andil #255,%d1
  50:	9081           	subl %d1,%d0
  52:	241f           	movel %sp@+,%d2
  54:	4e75           	rts
  56:	7008           	moveq #8,%d0
  58:	7418           	moveq #24,%d2
  5a:	e4a9           	lsrl %d2,%d1
  5c:	41f9 0000 0000 	lea 0 <___clzsi2>,%a0
  62:	1230 1800      	moveb %a0@(00000000,%d1:l),%d1
  66:	0281 0000 00ff 	andil #255,%d1
  6c:	9081           	subl %d1,%d0
  6e:	241f           	movel %sp@+,%d2
  70:	4e75           	rts
  72:	7020           	moveq #32,%d0
  74:	7400           	moveq #0,%d2
  76:	e4a9           	lsrl %d2,%d1
  78:	41f9 0000 0000 	lea 0 <___clzsi2>,%a0
  7e:	1230 1800      	moveb %a0@(00000000,%d1:l),%d1
  82:	0281 0000 00ff 	andil #255,%d1
  88:	9081           	subl %d1,%d0
  8a:	241f           	movel %sp@+,%d2
  8c:	4e75           	rts
	...

_clzdi2.o:     file format a.out-zero-big


Disassembly of section .text:

00000000 <___clzdi2>:
   0:	2f02           	movel %d2,%sp@-
   2:	202f 0008      	movel %sp@(8),%d0
   6:	222f 000c      	movel %sp@(12),%d1
   a:	4a80           	tstl %d0
   c:	6732           	beqs 40 <___clzdi2+0x40>
   e:	2200           	movel %d0,%d1
  10:	91c8           	subal %a0,%a0
  12:	0c81 0000 ffff 	cmpil #65535,%d1
  18:	6232           	bhis 4c <___clzdi2+0x4c>
  1a:	0c81 0000 00ff 	cmpil #255,%d1
  20:	636e           	blss 90 <___clzdi2+0x90>
  22:	7018           	moveq #24,%d0
  24:	7408           	moveq #8,%d2
  26:	e4a9           	lsrl %d2,%d1
  28:	43f9 0000 0000 	lea 0 <___clzdi2>,%a1
  2e:	1231 1800      	moveb %a1@(00000000,%d1:l),%d1
  32:	0281 0000 00ff 	andil #255,%d1
  38:	9081           	subl %d1,%d0
  3a:	d088           	addl %a0,%d0
  3c:	241f           	movel %sp@+,%d2
  3e:	4e75           	rts
  40:	307c 0020      	moveaw #32,%a0
  44:	0c81 0000 ffff 	cmpil #65535,%d1
  4a:	63ce           	blss 1a <___clzdi2+0x1a>
  4c:	0c81 00ff ffff 	cmpil #16777215,%d1
  52:	621e           	bhis 72 <___clzdi2+0x72>
  54:	7010           	moveq #16,%d0
  56:	7410           	moveq #16,%d2
  58:	e4a9           	lsrl %d2,%d1
  5a:	43f9 0000 0000 	lea 0 <___clzdi2>,%a1
  60:	1231 1800      	moveb %a1@(00000000,%d1:l),%d1
  64:	0281 0000 00ff 	andil #255,%d1
  6a:	9081           	subl %d1,%d0
  6c:	d088           	addl %a0,%d0
  6e:	241f           	movel %sp@+,%d2
  70:	4e75           	rts
  72:	7008           	moveq #8,%d0
  74:	7418           	moveq #24,%d2
  76:	e4a9           	lsrl %d2,%d1
  78:	43f9 0000 0000 	lea 0 <___clzdi2>,%a1
  7e:	1231 1800      	moveb %a1@(00000000,%d1:l),%d1
  82:	0281 0000 00ff 	andil #255,%d1
  88:	9081           	subl %d1,%d0
  8a:	d088           	addl %a0,%d0
  8c:	241f           	movel %sp@+,%d2
  8e:	4e75           	rts
  90:	7020           	moveq #32,%d0
  92:	7400           	moveq #0,%d2
  94:	e4a9           	lsrl %d2,%d1
  96:	43f9 0000 0000 	lea 0 <___clzdi2>,%a1
  9c:	1231 1800      	moveb %a1@(00000000,%d1:l),%d1
  a0:	0281 0000 00ff 	andil #255,%d1
  a6:	9081           	subl %d1,%d0
  a8:	d088           	addl %a0,%d0
  aa:	241f           	movel %sp@+,%d2
  ac:	4e75           	rts
	...

_ctzsi2.o:     file format a.out-zero-big


Disassembly of section .text:

00000000 <___ctzsi2>:
   0:	2f02           	movel %d2,%sp@-
   2:	202f 0008      	movel %sp@(8),%d0
   6:	2200           	movel %d0,%d1
   8:	4481           	negl %d1
   a:	c280           	andl %d0,%d1
   c:	0c81 0000 ffff 	cmpil #65535,%d1
  12:	6224           	bhis 38 <___ctzsi2+0x38>
  14:	0c81 0000 00ff 	cmpil #255,%d1
  1a:	635c           	blss 78 <___ctzsi2+0x78>
  1c:	7007           	moveq #7,%d0
  1e:	7408           	moveq #8,%d2
  20:	e4a9           	lsrl %d2,%d1
  22:	41f9 0000 0000 	lea 0 <___ctzsi2>,%a0
  28:	1230 1800      	moveb %a0@(00000000,%d1:l),%d1
  2c:	0281 0000 00ff 	andil #255,%d1
  32:	d081           	addl %d1,%d0
  34:	241f           	movel %sp@+,%d2
  36:	4e75           	rts
  38:	0c81 00ff ffff 	cmpil #16777215,%d1
  3e:	621c           	bhis 5c <___ctzsi2+0x5c>
  40:	700f           	moveq #15,%d0
  42:	7410           	moveq #16,%d2
  44:	e4a9           	lsrl %d2,%d1
  46:	41f9 0000 0000 	lea 0 <___ctzsi2>,%a0
  4c:	1230 1800      	moveb %a0@(00000000,%d1:l),%d1
  50:	0281 0000 00ff 	andil #255,%d1
  56:	d081           	addl %d1,%d0
  58:	241f           	movel %sp@+,%d2
  5a:	4e75           	rts
  5c:	7017           	moveq #23,%d0
  5e:	7418           	moveq #24,%d2
  60:	e4a9           	lsrl %d2,%d1
  62:	41f9 0000 0000 	lea 0 <___ctzsi2>,%a0
  68:	1230 1800      	moveb %a0@(00000000,%d1:l),%d1
  6c:	0281 0000 00ff 	andil #255,%d1
  72:	d081           	addl %d1,%d0
  74:	241f           	movel %sp@+,%d2
  76:	4e75           	rts
  78:	70ff           	moveq #-1,%d0
  7a:	7400           	moveq #0,%d2
  7c:	e4a9           	lsrl %d2,%d1
  7e:	41f9 0000 0000 	lea 0 <___ctzsi2>,%a0
  84:	1230 1800      	moveb %a0@(00000000,%d1:l),%d1
  88:	0281 0000 00ff 	andil #255,%d1
  8e:	d081           	addl %d1,%d0
  90:	241f           	movel %sp@+,%d2
  92:	4e75           	rts

_ctzdi2.o:     file format a.out-zero-big


Disassembly of section .text:

00000000 <___ctzdi2>:
   0:	2f02           	movel %d2,%sp@-
   2:	242f 0008      	movel %sp@(8),%d2
   6:	202f 000c      	movel %sp@(12),%d0
   a:	6738           	beqs 44 <___ctzdi2+0x44>
   c:	2400           	movel %d0,%d2
   e:	91c8           	subal %a0,%a0
  10:	2202           	movel %d2,%d1
  12:	4481           	negl %d1
  14:	c282           	andl %d2,%d1
  16:	0c81 0000 ffff 	cmpil #65535,%d1
  1c:	6238           	bhis 56 <___ctzdi2+0x56>
  1e:	0c81 0000 00ff 	cmpil #255,%d1
  24:	6374           	blss 9a <___ctzdi2+0x9a>
  26:	7007           	moveq #7,%d0
  28:	7408           	moveq #8,%d2
  2a:	e4a9           	lsrl %d2,%d1
  2c:	43f9 0000 0000 	lea 0 <___ctzdi2>,%a1
  32:	1231 1800      	moveb %a1@(00000000,%d1:l),%d1
  36:	0281 0000 00ff 	andil #255,%d1
  3c:	d081           	addl %d1,%d0
  3e:	d088           	addl %a0,%d0
  40:	241f           	movel %sp@+,%d2
  42:	4e75           	rts
  44:	307c 0020      	moveaw #32,%a0
  48:	2202           	movel %d2,%d1
  4a:	4481           	negl %d1
  4c:	c282           	andl %d2,%d1
  4e:	0c81 0000 ffff 	cmpil #65535,%d1
  54:	63c8           	blss 1e <___ctzdi2+0x1e>
  56:	0c81 00ff ffff 	cmpil #16777215,%d1
  5c:	621e           	bhis 7c <___ctzdi2+0x7c>
  5e:	700f           	moveq #15,%d0
  60:	7410           	moveq #16,%d2
  62:	e4a9           	lsrl %d2,%d1
  64:	43f9 0000 0000 	lea 0 <___ctzdi2>,%a1
  6a:	1231 1800      	moveb %a1@(00000000,%d1:l),%d1
  6e:	0281 0000 00ff 	andil #255,%d1
  74:	d081           	addl %d1,%d0
  76:	d088           	addl %a0,%d0
  78:	241f           	movel %sp@+,%d2
  7a:	4e75           	rts
  7c:	7017           	moveq #23,%d0
  7e:	7418           	moveq #24,%d2
  80:	e4a9           	lsrl %d2,%d1
  82:	43f9 0000 0000 	lea 0 <___ctzdi2>,%a1
  88:	1231 1800      	moveb %a1@(00000000,%d1:l),%d1
  8c:	0281 0000 00ff 	andil #255,%d1
  92:	d081           	addl %d1,%d0
  94:	d088           	addl %a0,%d0
  96:	241f           	movel %sp@+,%d2
  98:	4e75           	rts
  9a:	70ff           	moveq #-1,%d0
  9c:	7400           	moveq #0,%d2
  9e:	e4a9           	lsrl %d2,%d1
  a0:	43f9 0000 0000 	lea 0 <___ctzdi2>,%a1
  a6:	1231 1800      	moveb %a1@(00000000,%d1:l),%d1
  aa:	0281 0000 00ff 	andil #255,%d1
  b0:	d081           	addl %d1,%d0
  b2:	d088           	addl %a0,%d0
  b4:	241f           	movel %sp@+,%d2
  b6:	4e75           	rts

_popcount_tab.o:     file format a.out-zero-big


Disassembly of section .text:

00000000 <___popcount_tab>:
   0:	0001 0102      	orib #2,%d1
   4:	0102           	btst %d0,%d2
   6:	0203 0102      	andib #2,%d3
   a:	0203 0203      	andib #3,%d3
   e:	0304           	btst %d1,%d4
  10:	0102           	btst %d0,%d2
  12:	0203 0203      	andib #3,%d3
  16:	0304           	btst %d1,%d4
  18:	0203 0304      	andib #4,%d3
  1c:	0304           	btst %d1,%d4
  1e:	0405 0102      	subib #2,%d5
  22:	0203 0203      	andib #3,%d3
  26:	0304           	btst %d1,%d4
  28:	0203 0304      	andib #4,%d3
  2c:	0304           	btst %d1,%d4
  2e:	0405 0203      	subib #3,%d5
  32:	0304           	btst %d1,%d4
  34:	0304           	btst %d1,%d4
  36:	0405 0304      	subib #4,%d5
  3a:	0405 0405      	subib #5,%d5
  3e:	0506           	btst %d2,%d6
  40:	0102           	btst %d0,%d2
  42:	0203 0203      	andib #3,%d3
  46:	0304           	btst %d1,%d4
  48:	0203 0304      	andib #4,%d3
  4c:	0304           	btst %d1,%d4
  4e:	0405 0203      	subib #3,%d5
  52:	0304           	btst %d1,%d4
  54:	0304           	btst %d1,%d4
  56:	0405 0304      	subib #4,%d5
  5a:	0405 0405      	subib #5,%d5
  5e:	0506           	btst %d2,%d6
  60:	0203 0304      	andib #4,%d3
  64:	0304           	btst %d1,%d4
  66:	0405 0304      	subib #4,%d5
  6a:	0405 0405      	subib #5,%d5
  6e:	0506           	btst %d2,%d6
  70:	0304           	btst %d1,%d4
  72:	0405 0405      	subib #5,%d5
  76:	0506           	btst %d2,%d6
  78:	0405 0506      	subib #6,%d5
  7c:	0506           	btst %d2,%d6
  7e:	0607 0102      	addib #2,%d7
  82:	0203 0203      	andib #3,%d3
  86:	0304           	btst %d1,%d4
  88:	0203 0304      	andib #4,%d3
  8c:	0304           	btst %d1,%d4
  8e:	0405 0203      	subib #3,%d5
  92:	0304           	btst %d1,%d4
  94:	0304           	btst %d1,%d4
  96:	0405 0304      	subib #4,%d5
  9a:	0405 0405      	subib #5,%d5
  9e:	0506           	btst %d2,%d6
  a0:	0203 0304      	andib #4,%d3
  a4:	0304           	btst %d1,%d4
  a6:	0405 0304      	subib #4,%d5
  aa:	0405 0405      	subib #5,%d5
  ae:	0506           	btst %d2,%d6
  b0:	0304           	btst %d1,%d4
  b2:	0405 0405      	subib #5,%d5
  b6:	0506           	btst %d2,%d6
  b8:	0405 0506      	subib #6,%d5
  bc:	0506           	btst %d2,%d6
  be:	0607 0203      	addib #3,%d7
  c2:	0304           	btst %d1,%d4
  c4:	0304           	btst %d1,%d4
  c6:	0405 0304      	subib #4,%d5
  ca:	0405 0405      	subib #5,%d5
  ce:	0506           	btst %d2,%d6
  d0:	0304           	btst %d1,%d4
  d2:	0405 0405      	subib #5,%d5
  d6:	0506           	btst %d2,%d6
  d8:	0405 0506      	subib #6,%d5
  dc:	0506           	btst %d2,%d6
  de:	0607 0304      	addib #4,%d7
  e2:	0405 0405      	subib #5,%d5
  e6:	0506           	btst %d2,%d6
  e8:	0405 0506      	subib #6,%d5
  ec:	0506           	btst %d2,%d6
  ee:	0607 0405      	addib #5,%d7
  f2:	0506           	btst %d2,%d6
  f4:	0506           	btst %d2,%d6
  f6:	0607 0506      	addib #6,%d7
  fa:	0607 0607      	addib #7,%d7
  fe:	0708           	.short 0x0708

_popcountsi2.o:     file format a.out-zero-big


Disassembly of section .text:

00000000 <___popcountsi2>:
   0:	48e7 3800      	moveml %d2-%d4,%sp@-
   4:	262f 0010      	movel %sp@(16),%d3
   8:	7000           	moveq #0,%d0
   a:	7200           	moveq #0,%d1
   c:	41f9 0000 0000 	lea 0 <___popcountsi2>,%a0
  12:	2403           	movel %d3,%d2
  14:	e2aa           	lsrl %d1,%d2
  16:	7800           	moveq #0,%d4
  18:	4604           	notb %d4
  1a:	c484           	andl %d4,%d2
  1c:	1430 2800      	moveb %a0@(00000000,%d2:l),%d2
  20:	0282 0000 00ff 	andil #255,%d2
  26:	d082           	addl %d2,%d0
  28:	5081           	addql #8,%d1
  2a:	7420           	moveq #32,%d2
  2c:	b481           	cmpl %d1,%d2
  2e:	66e2           	bnes 12 <___popcountsi2+0x12>
  30:	4cdf 001c      	moveml %sp@+,%d2-%d4
  34:	4e75           	rts
	...

_popcountdi2.o:     file format a.out-zero-big


Disassembly of section .text:

00000000 <___popcountdi2>:
   0:	48e7 3f20      	moveml %d2-%d7/%a2,%sp@-
   4:	222f 0020      	movel %sp@(32),%d1
   8:	2e2f 0024      	movel %sp@(36),%d7
   c:	7000           	moveq #0,%d0
   e:	91c8           	subal %a0,%a0
  10:	45f9 0000 0000 	lea 0 <___popcountdi2>,%a2
  16:	2c01           	movel %d1,%d6
  18:	dc86           	addl %d6,%d6
  1a:	43e8 ffe0      	lea %a0@(-32),%a1
  1e:	b2fc 0000      	cmpaw #0,%a1
  22:	6d2a           	blts 4e <___popcountdi2+0x4e>
  24:	2601           	movel %d1,%d3
  26:	2809           	movel %a1,%d4
  28:	e8ab           	lsrl %d4,%d3
  2a:	7400           	moveq #0,%d2
  2c:	2802           	movel %d2,%d4
  2e:	2a03           	movel %d3,%d5
  30:	4284           	clrl %d4
  32:	0285 0000 00ff 	andil #255,%d5
  38:	7800           	moveq #0,%d4
  3a:	1832 5800      	moveb %a2@(00000000,%d5:l),%d4
  3e:	d084           	addl %d4,%d0
  40:	5088           	addql #8,%a0
  42:	7840           	moveq #64,%d4
  44:	b888           	cmpl %a0,%d4
  46:	66d2           	bnes 1a <___popcountdi2+0x1a>
  48:	4cdf 04fc      	moveml %sp@+,%d2-%d7/%a2
  4c:	4e75           	rts
  4e:	781f           	moveq #31,%d4
  50:	9888           	subl %a0,%d4
  52:	2a06           	movel %d6,%d5
  54:	e9ad           	lsll %d4,%d5
  56:	2805           	movel %d5,%d4
  58:	2607           	movel %d7,%d3
  5a:	2a08           	movel %a0,%d5
  5c:	eaab           	lsrl %d5,%d3
  5e:	8684           	orl %d4,%d3
  60:	2401           	movel %d1,%d2
  62:	eaaa           	lsrl %d5,%d2
  64:	2802           	movel %d2,%d4
  66:	2a03           	movel %d3,%d5
  68:	4284           	clrl %d4
  6a:	0285 0000 00ff 	andil #255,%d5
  70:	7800           	moveq #0,%d4
  72:	1832 5800      	moveb %a2@(00000000,%d5:l),%d4
  76:	d084           	addl %d4,%d0
  78:	5088           	addql #8,%a0
  7a:	7840           	moveq #64,%d4
  7c:	b888           	cmpl %a0,%d4
  7e:	669a           	bnes 1a <___popcountdi2+0x1a>
  80:	60c6           	bras 48 <___popcountdi2+0x48>
	...

_paritysi2.o:     file format a.out-zero-big


Disassembly of section .text:

00000000 <___paritysi2>:
   0:	7200           	moveq #0,%d1
   2:	322f 0004      	movew %sp@(4),%d1
   6:	202f 0004      	movel %sp@(4),%d0
   a:	b181           	eorl %d0,%d1
   c:	2001           	movel %d1,%d0
   e:	e088           	lsrl #8,%d0
  10:	b380           	eorl %d1,%d0
  12:	2200           	movel %d0,%d1
  14:	e889           	lsrl #4,%d1
  16:	b181           	eorl %d0,%d1
  18:	700f           	moveq #15,%d0
  1a:	c280           	andl %d0,%d1
  1c:	303c 6996      	movew #27030,%d0
  20:	e2a0           	asrl %d1,%d0
  22:	7201           	moveq #1,%d1
  24:	c081           	andl %d1,%d0
  26:	4e75           	rts

_paritydi2.o:     file format a.out-zero-big


Disassembly of section .text:

00000000 <___paritydi2>:
   0:	202f 0004      	movel %sp@(4),%d0
   4:	222f 0008      	movel %sp@(8),%d1
   8:	b380           	eorl %d1,%d0
   a:	2200           	movel %d0,%d1
   c:	4241           	clrw %d1
   e:	4841           	swap %d1
  10:	b181           	eorl %d0,%d1
  12:	2001           	movel %d1,%d0
  14:	e088           	lsrl #8,%d0
  16:	b380           	eorl %d1,%d0
  18:	2200           	movel %d0,%d1
  1a:	e889           	lsrl #4,%d1
  1c:	b181           	eorl %d0,%d1
  1e:	700f           	moveq #15,%d0
  20:	c280           	andl %d0,%d1
  22:	303c 6996      	movew #27030,%d0
  26:	e2a0           	asrl %d1,%d0
  28:	7201           	moveq #1,%d1
  2a:	c081           	andl %d1,%d0
  2c:	4e75           	rts
	...

_powisf2.o:     file format a.out-zero-big


Disassembly of section .text:

00000000 <___powisf2>:
   0:	48e7 3c20      	moveml %d2-%d5/%a2,%sp@-
   4:	262f 0018      	movel %sp@(24),%d3
   8:	2a2f 001c      	movel %sp@(28),%d5
   c:	2405           	movel %d5,%d2
   e:	6d64           	blts 74 <___powisf2+0x74>
  10:	0802 0000      	btst #0,%d2
  14:	6736           	beqs 4c <___powisf2+0x4c>
  16:	2803           	movel %d3,%d4
  18:	45f9 0000 0000 	lea 0 <___powisf2>,%a2
  1e:	e28a           	lsrl #1,%d2
  20:	671e           	beqs 40 <___powisf2+0x40>
  22:	2f03           	movel %d3,%sp@-
  24:	2f03           	movel %d3,%sp@-
  26:	4e92           	jsr %a2@
  28:	508f           	addql #8,%sp
  2a:	2600           	movel %d0,%d3
  2c:	0802 0000      	btst #0,%d2
  30:	67ec           	beqs 1e <___powisf2+0x1e>
  32:	2f00           	movel %d0,%sp@-
  34:	2f04           	movel %d4,%sp@-
  36:	4e92           	jsr %a2@
  38:	508f           	addql #8,%sp
  3a:	2800           	movel %d0,%d4
  3c:	e28a           	lsrl #1,%d2
  3e:	66e2           	bnes 22 <___powisf2+0x22>
  40:	4a85           	tstl %d5
  42:	6d16           	blts 5a <___powisf2+0x5a>
  44:	2004           	movel %d4,%d0
  46:	4cdf 043c      	moveml %sp@+,%d2-%d5/%a2
  4a:	4e75           	rts
  4c:	283c 3f80 0000 	movel #1065353216,%d4
  52:	45f9 0000 0000 	lea 0 <___powisf2>,%a2
  58:	60c4           	bras 1e <___powisf2+0x1e>
  5a:	2f04           	movel %d4,%sp@-
  5c:	2f3c 3f80 0000 	movel #1065353216,%sp@-
  62:	4eb9 0000 0000 	jsr 0 <___powisf2>
  68:	508f           	addql #8,%sp
  6a:	2800           	movel %d0,%d4
  6c:	2004           	movel %d4,%d0
  6e:	4cdf 043c      	moveml %sp@+,%d2-%d5/%a2
  72:	4e75           	rts
  74:	4482           	negl %d2
  76:	6098           	bras 10 <___powisf2+0x10>

_powidf2.o:     file format a.out-zero-big


Disassembly of section .text:

00000000 <___powidf2>:
   0:	48e7 3f20      	moveml %d2-%d7/%a2,%sp@-
   4:	282f 0020      	movel %sp@(32),%d4
   8:	2a2f 0024      	movel %sp@(36),%d5
   c:	262f 0028      	movel %sp@(40),%d3
  10:	2403           	movel %d3,%d2
  12:	6d00 0090      	bltw a4 <___powidf2+0xa4>
  16:	0802 0000      	btst #0,%d2
  1a:	6752           	beqs 6e <___powidf2+0x6e>
  1c:	2c04           	movel %d4,%d6
  1e:	2e05           	movel %d5,%d7
  20:	45f9 0000 0000 	lea 0 <___powidf2>,%a2
  26:	e28a           	lsrl #1,%d2
  28:	6736           	beqs 60 <___powidf2+0x60>
  2a:	2f05           	movel %d5,%sp@-
  2c:	2f04           	movel %d4,%sp@-
  2e:	2f05           	movel %d5,%sp@-
  30:	2f04           	movel %d4,%sp@-
  32:	4e92           	jsr %a2@
  34:	4fef 0010      	lea %sp@(16),%sp
  38:	2040           	moveal %d0,%a0
  3a:	2241           	moveal %d1,%a1
  3c:	2808           	movel %a0,%d4
  3e:	2a09           	movel %a1,%d5
  40:	0802 0000      	btst #0,%d2
  44:	67e0           	beqs 26 <___powidf2+0x26>
  46:	2f01           	movel %d1,%sp@-
  48:	2f08           	movel %a0,%sp@-
  4a:	2f07           	movel %d7,%sp@-
  4c:	2f06           	movel %d6,%sp@-
  4e:	4e92           	jsr %a2@
  50:	4fef 0010      	lea %sp@(16),%sp
  54:	2240           	moveal %d0,%a1
  56:	2009           	movel %a1,%d0
  58:	2c00           	movel %d0,%d6
  5a:	2e01           	movel %d1,%d7
  5c:	e28a           	lsrl #1,%d2
  5e:	66ca           	bnes 2a <___powidf2+0x2a>
  60:	4a83           	tstl %d3
  62:	6d1a           	blts 7e <___powidf2+0x7e>
  64:	2006           	movel %d6,%d0
  66:	2207           	movel %d7,%d1
  68:	4cdf 04fc      	moveml %sp@+,%d2-%d7/%a2
  6c:	4e75           	rts
  6e:	2c3c 3ff0 0000 	movel #1072693248,%d6
  74:	4287           	clrl %d7
  76:	45f9 0000 0000 	lea 0 <___powidf2>,%a2
  7c:	60a8           	bras 26 <___powidf2+0x26>
  7e:	2f07           	movel %d7,%sp@-
  80:	2f06           	movel %d6,%sp@-
  82:	42a7           	clrl %sp@-
  84:	2f3c 3ff0 0000 	movel #1072693248,%sp@-
  8a:	4eb9 0000 0000 	jsr 0 <___powidf2>
  90:	4fef 0010      	lea %sp@(16),%sp
  94:	2240           	moveal %d0,%a1
  96:	2c09           	movel %a1,%d6
  98:	2e01           	movel %d1,%d7
  9a:	2006           	movel %d6,%d0
  9c:	2207           	movel %d7,%d1
  9e:	4cdf 04fc      	moveml %sp@+,%d2-%d7/%a2
  a2:	4e75           	rts
  a4:	4482           	negl %d2
  a6:	6000 ff6e      	braw 16 <___powidf2+0x16>
	...

_powixf2.o:     file format a.out-zero-big


Disassembly of section .text:

00000000 <___powixf2-0xc>:
   0:	3fff           	.short 0x3fff
   2:	0000 8000      	orib #0,%d0
   6:	0000 0000      	orib #0,%d0
	...

0000000c <___powixf2>:
   c:	4fef fff4      	lea %sp@(-12),%sp
  10:	48e7 3e3e      	moveml %d2-%d6/%a2-%fp,%sp@-
  14:	2649           	moveal %a1,%a3
  16:	262f 0038      	movel %sp@(56),%d3
  1a:	282f 003c      	movel %sp@(60),%d4
  1e:	2a2f 0040      	movel %sp@(64),%d5
  22:	2c2f 0044      	movel %sp@(68),%d6
  26:	2406           	movel %d6,%d2
  28:	6d00 00d6      	bltw 100 <___powixf2+0xf4>
  2c:	0802 0000      	btst #0,%d2
  30:	6778           	beqs aa <___powixf2+0x9e>
  32:	2843           	moveal %d3,%a4
  34:	2a44           	moveal %d4,%a5
  36:	2c45           	moveal %d5,%fp
  38:	45f9 0000 0000 	lea 0 <___powixf2-0xc>,%a2
  3e:	e28a           	lsrl #1,%d2
  40:	674e           	beqs 90 <___powixf2+0x84>
  42:	2f05           	movel %d5,%sp@-
  44:	2f04           	movel %d4,%sp@-
  46:	2f03           	movel %d3,%sp@-
  48:	2f05           	movel %d5,%sp@-
  4a:	2f04           	movel %d4,%sp@-
  4c:	2f03           	movel %d3,%sp@-
  4e:	43ef 0040      	lea %sp@(64),%a1
  52:	4e92           	jsr %a2@
  54:	4fef 0018      	lea %sp@(24),%sp
  58:	262f 0028      	movel %sp@(40),%d3
  5c:	282f 002c      	movel %sp@(44),%d4
  60:	2a2f 0030      	movel %sp@(48),%d5
  64:	0802 0000      	btst #0,%d2
  68:	67d4           	beqs 3e <___powixf2+0x32>
  6a:	2f05           	movel %d5,%sp@-
  6c:	2f04           	movel %d4,%sp@-
  6e:	2f03           	movel %d3,%sp@-
  70:	2f0e           	movel %fp,%sp@-
  72:	2f0d           	movel %a5,%sp@-
  74:	2f0c           	movel %a4,%sp@-
  76:	43ef 0040      	lea %sp@(64),%a1
  7a:	4e92           	jsr %a2@
  7c:	4fef 0018      	lea %sp@(24),%sp
  80:	286f 0028      	moveal %sp@(40),%a4
  84:	2a6f 002c      	moveal %sp@(44),%a5
  88:	2c6f 0030      	moveal %sp@(48),%fp
  8c:	e28a           	lsrl #1,%d2
  8e:	66b2           	bnes 42 <___powixf2+0x36>
  90:	4a86           	tstl %d6
  92:	6d2a           	blts be <___powixf2+0xb2>
  94:	268c           	movel %a4,%a3@
  96:	274d 0004      	movel %a5,%a3@(4)
  9a:	274e 0008      	movel %fp,%a3@(8)
  9e:	200b           	movel %a3,%d0
  a0:	4cdf 7c7c      	moveml %sp@+,%d2-%d6/%a2-%fp
  a4:	4fef 000c      	lea %sp@(12),%sp
  a8:	4e75           	rts
  aa:	287a ff54      	moveal %pc@(0 <___powixf2-0xc>),%a4
  ae:	2a7a ff54      	moveal %pc@(4 <___powixf2-0x8>),%a5
  b2:	2c7a ff54      	moveal %pc@(8 <___powixf2-0x4>),%fp
  b6:	45f9 0000 0000 	lea 0 <___powixf2-0xc>,%a2
  bc:	6080           	bras 3e <___powixf2+0x32>
  be:	2f0e           	movel %fp,%sp@-
  c0:	2f0d           	movel %a5,%sp@-
  c2:	2f0c           	movel %a4,%sp@-
  c4:	2f3a ff42      	movel %pc@(8 <___powixf2-0x4>),%sp@-
  c8:	2f3a ff3a      	movel %pc@(4 <___powixf2-0x8>),%sp@-
  cc:	2f3a ff32      	movel %pc@(0 <___powixf2-0xc>),%sp@-
  d0:	43ef 0040      	lea %sp@(64),%a1
  d4:	4eb9 0000 0000 	jsr 0 <___powixf2-0xc>
  da:	4fef 0018      	lea %sp@(24),%sp
  de:	286f 0028      	moveal %sp@(40),%a4
  e2:	2a6f 002c      	moveal %sp@(44),%a5
  e6:	2c6f 0030      	moveal %sp@(48),%fp
  ea:	268c           	movel %a4,%a3@
  ec:	274d 0004      	movel %a5,%a3@(4)
  f0:	274e 0008      	movel %fp,%a3@(8)
  f4:	200b           	movel %a3,%d0
  f6:	4cdf 7c7c      	moveml %sp@+,%d2-%d6/%a2-%fp
  fa:	4fef 000c      	lea %sp@(12),%sp
  fe:	4e75           	rts
 100:	4482           	negl %d2
 102:	6000 ff28      	braw 2c <___powixf2+0x20>
	...

_powitf2.o:     file format a.out-zero-big


_mulsc3.o:     file format a.out-zero-big


Disassembly of section .text:

00000000 <___mulsc3>:
   0:	518f           	subql #8,%sp
   2:	48e7 3f3e      	moveml %d2-%d7/%a2-%fp,%sp@-
   6:	2c2f 0038      	movel %sp@(56),%d6
   a:	282f 003c      	movel %sp@(60),%d4
   e:	2a2f 0044      	movel %sp@(68),%d5
  12:	45f9 0000 0000 	lea 0 <___mulsc3>,%a2
  18:	2f2f 0040      	movel %sp@(64),%sp@-
  1c:	2f06           	movel %d6,%sp@-
  1e:	4e92           	jsr %a2@
  20:	508f           	addql #8,%sp
  22:	2e00           	movel %d0,%d7
  24:	2f05           	movel %d5,%sp@-
  26:	2f04           	movel %d4,%sp@-
  28:	4e92           	jsr %a2@
  2a:	508f           	addql #8,%sp
  2c:	2a40           	moveal %d0,%a5
  2e:	2f05           	movel %d5,%sp@-
  30:	2f06           	movel %d6,%sp@-
  32:	4e92           	jsr %a2@
  34:	508f           	addql #8,%sp
  36:	2c40           	moveal %d0,%fp
  38:	2f2f 0040      	movel %sp@(64),%sp@-
  3c:	2f04           	movel %d4,%sp@-
  3e:	4e92           	jsr %a2@
  40:	508f           	addql #8,%sp
  42:	2f40 002e      	movel %d0,%sp@(46)
  46:	49f9 0000 0000 	lea 0 <___mulsc3>,%a4
  4c:	2f0d           	movel %a5,%sp@-
  4e:	2f07           	movel %d7,%sp@-
  50:	4e94           	jsr %a4@
  52:	508f           	addql #8,%sp
  54:	2400           	movel %d0,%d2
  56:	2f2f 002e      	movel %sp@(46),%sp@-
  5a:	2f0e           	movel %fp,%sp@-
  5c:	4eb9 0000 0000 	jsr 0 <___mulsc3>
  62:	508f           	addql #8,%sp
  64:	2600           	movel %d0,%d3
  66:	47f9 0000 0000 	lea 0 <___mulsc3>,%a3
  6c:	2f02           	movel %d2,%sp@-
  6e:	2f02           	movel %d2,%sp@-
  70:	4e93           	jsr %a3@
  72:	508f           	addql #8,%sp
  74:	4a80           	tstl %d0
  76:	660c           	bnes 84 <___mulsc3+0x84>
  78:	2002           	movel %d2,%d0
  7a:	2203           	movel %d3,%d1
  7c:	4cdf 7cfc      	moveml %sp@+,%d2-%d7/%a2-%fp
  80:	508f           	addql #8,%sp
  82:	4e75           	rts
  84:	2f03           	movel %d3,%sp@-
  86:	2f03           	movel %d3,%sp@-
  88:	4e93           	jsr %a3@
  8a:	508f           	addql #8,%sp
  8c:	4a80           	tstl %d0
  8e:	67e8           	beqs 78 <___mulsc3+0x78>
  90:	2f06           	movel %d6,%sp@-
  92:	2f06           	movel %d6,%sp@-
  94:	4e94           	jsr %a4@
  96:	588f           	addql #4,%sp
  98:	2e80           	movel %d0,%sp@
  9a:	2f00           	movel %d0,%sp@-
  9c:	4e93           	jsr %a3@
  9e:	508f           	addql #8,%sp
  a0:	4a80           	tstl %d0
  a2:	670e           	beqs b2 <___mulsc3+0xb2>
  a4:	2f06           	movel %d6,%sp@-
  a6:	2f06           	movel %d6,%sp@-
  a8:	4e93           	jsr %a3@
  aa:	508f           	addql #8,%sp
  ac:	4a80           	tstl %d0
  ae:	6700 01f0      	beqw 2a0 <___mulsc3+0x2a0>
  b2:	2f04           	movel %d4,%sp@-
  b4:	2f04           	movel %d4,%sp@-
  b6:	4e94           	jsr %a4@
  b8:	588f           	addql #4,%sp
  ba:	2e80           	movel %d0,%sp@
  bc:	2f00           	movel %d0,%sp@-
  be:	4e93           	jsr %a3@
  c0:	508f           	addql #8,%sp
  c2:	4a80           	tstl %d0
  c4:	670e           	beqs d4 <___mulsc3+0xd4>
  c6:	2f04           	movel %d4,%sp@-
  c8:	2f04           	movel %d4,%sp@-
  ca:	4e93           	jsr %a3@
  cc:	508f           	addql #8,%sp
  ce:	4a80           	tstl %d0
  d0:	6700 02dc      	beqw 3ae <___mulsc3+0x3ae>
  d4:	422f 0033      	clrb %sp@(51)
  d8:	2f2f 0040      	movel %sp@(64),%sp@-
  dc:	2f2f 0044      	movel %sp@(68),%sp@-
  e0:	4e94           	jsr %a4@
  e2:	588f           	addql #4,%sp
  e4:	2e80           	movel %d0,%sp@
  e6:	2f00           	movel %d0,%sp@-
  e8:	4e93           	jsr %a3@
  ea:	508f           	addql #8,%sp
  ec:	4a80           	tstl %d0
  ee:	6712           	beqs 102 <___mulsc3+0x102>
  f0:	2f2f 0040      	movel %sp@(64),%sp@-
  f4:	2f2f 0044      	movel %sp@(68),%sp@-
  f8:	4e93           	jsr %a3@
  fa:	508f           	addql #8,%sp
  fc:	4a80           	tstl %d0
  fe:	6700 0210      	beqw 310 <___mulsc3+0x310>
 102:	2f05           	movel %d5,%sp@-
 104:	2f05           	movel %d5,%sp@-
 106:	4e94           	jsr %a4@
 108:	588f           	addql #4,%sp
 10a:	2e80           	movel %d0,%sp@
 10c:	2f00           	movel %d0,%sp@-
 10e:	4e93           	jsr %a3@
 110:	508f           	addql #8,%sp
 112:	4a80           	tstl %d0
 114:	670e           	beqs 124 <___mulsc3+0x124>
 116:	2f05           	movel %d5,%sp@-
 118:	2f05           	movel %d5,%sp@-
 11a:	4e93           	jsr %a3@
 11c:	508f           	addql #8,%sp
 11e:	4a80           	tstl %d0
 120:	6700 0272      	beqw 394 <___mulsc3+0x394>
 124:	4a2f 0033      	tstb %sp@(51)
 128:	6600 00c8      	bnew 1f2 <___mulsc3+0x1f2>
 12c:	2f07           	movel %d7,%sp@-
 12e:	2f07           	movel %d7,%sp@-
 130:	4e94           	jsr %a4@
 132:	588f           	addql #4,%sp
 134:	2e80           	movel %d0,%sp@
 136:	2f00           	movel %d0,%sp@-
 138:	4e93           	jsr %a3@
 13a:	508f           	addql #8,%sp
 13c:	4a80           	tstl %d0
 13e:	670c           	beqs 14c <___mulsc3+0x14c>
 140:	2f07           	movel %d7,%sp@-
 142:	2f07           	movel %d7,%sp@-
 144:	4e93           	jsr %a3@
 146:	508f           	addql #8,%sp
 148:	4a80           	tstl %d0
 14a:	676c           	beqs 1b8 <___mulsc3+0x1b8>
 14c:	2f0d           	movel %a5,%sp@-
 14e:	2f0d           	movel %a5,%sp@-
 150:	4e94           	jsr %a4@
 152:	588f           	addql #4,%sp
 154:	2e80           	movel %d0,%sp@
 156:	2f00           	movel %d0,%sp@-
 158:	4e93           	jsr %a3@
 15a:	508f           	addql #8,%sp
 15c:	4a80           	tstl %d0
 15e:	670c           	beqs 16c <___mulsc3+0x16c>
 160:	2f0d           	movel %a5,%sp@-
 162:	2f0d           	movel %a5,%sp@-
 164:	4e93           	jsr %a3@
 166:	508f           	addql #8,%sp
 168:	4a80           	tstl %d0
 16a:	674c           	beqs 1b8 <___mulsc3+0x1b8>
 16c:	2f0e           	movel %fp,%sp@-
 16e:	2f0e           	movel %fp,%sp@-
 170:	4e94           	jsr %a4@
 172:	588f           	addql #4,%sp
 174:	2e80           	movel %d0,%sp@
 176:	2f00           	movel %d0,%sp@-
 178:	4e93           	jsr %a3@
 17a:	508f           	addql #8,%sp
 17c:	4a80           	tstl %d0
 17e:	670c           	beqs 18c <___mulsc3+0x18c>
 180:	2f0e           	movel %fp,%sp@-
 182:	2f0e           	movel %fp,%sp@-
 184:	4e93           	jsr %a3@
 186:	508f           	addql #8,%sp
 188:	4a80           	tstl %d0
 18a:	672c           	beqs 1b8 <___mulsc3+0x1b8>
 18c:	2f2f 002e      	movel %sp@(46),%sp@-
 190:	2f2f 0032      	movel %sp@(50),%sp@-
 194:	4e94           	jsr %a4@
 196:	588f           	addql #4,%sp
 198:	2e80           	movel %d0,%sp@
 19a:	2f00           	movel %d0,%sp@-
 19c:	4e93           	jsr %a3@
 19e:	508f           	addql #8,%sp
 1a0:	4a80           	tstl %d0
 1a2:	6700 fed4      	beqw 78 <___mulsc3+0x78>
 1a6:	2f2f 002e      	movel %sp@(46),%sp@-
 1aa:	2f2f 0032      	movel %sp@(50),%sp@-
 1ae:	4e93           	jsr %a3@
 1b0:	508f           	addql #8,%sp
 1b2:	4a80           	tstl %d0
 1b4:	6600 fec2      	bnew 78 <___mulsc3+0x78>
 1b8:	2f06           	movel %d6,%sp@-
 1ba:	2f06           	movel %d6,%sp@-
 1bc:	4e93           	jsr %a3@
 1be:	508f           	addql #8,%sp
 1c0:	4a80           	tstl %d0
 1c2:	6600 00ca      	bnew 28e <___mulsc3+0x28e>
 1c6:	2f04           	movel %d4,%sp@-
 1c8:	2f04           	movel %d4,%sp@-
 1ca:	4e93           	jsr %a3@
 1cc:	508f           	addql #8,%sp
 1ce:	4a80           	tstl %d0
 1d0:	6600 00aa      	bnew 27c <___mulsc3+0x27c>
 1d4:	2f2f 0040      	movel %sp@(64),%sp@-
 1d8:	2f2f 0044      	movel %sp@(68),%sp@-
 1dc:	4e93           	jsr %a3@
 1de:	508f           	addql #8,%sp
 1e0:	4a80           	tstl %d0
 1e2:	6600 0082      	bnew 266 <___mulsc3+0x266>
 1e6:	2f05           	movel %d5,%sp@-
 1e8:	2f05           	movel %d5,%sp@-
 1ea:	4e93           	jsr %a3@
 1ec:	508f           	addql #8,%sp
 1ee:	4a80           	tstl %d0
 1f0:	6664           	bnes 256 <___mulsc3+0x256>
 1f2:	2f2f 0040      	movel %sp@(64),%sp@-
 1f6:	2f06           	movel %d6,%sp@-
 1f8:	4e92           	jsr %a2@
 1fa:	508f           	addql #8,%sp
 1fc:	2400           	movel %d0,%d2
 1fe:	2f05           	movel %d5,%sp@-
 200:	2f04           	movel %d4,%sp@-
 202:	4e92           	jsr %a2@
 204:	588f           	addql #4,%sp
 206:	2e80           	movel %d0,%sp@
 208:	2f02           	movel %d2,%sp@-
 20a:	4e94           	jsr %a4@
 20c:	588f           	addql #4,%sp
 20e:	2ebc 7f80 0000 	movel #2139095040,%sp@
 214:	2f00           	movel %d0,%sp@-
 216:	4e92           	jsr %a2@
 218:	508f           	addql #8,%sp
 21a:	2400           	movel %d0,%d2
 21c:	2f05           	movel %d5,%sp@-
 21e:	2f06           	movel %d6,%sp@-
 220:	4e92           	jsr %a2@
 222:	508f           	addql #8,%sp
 224:	2600           	movel %d0,%d3
 226:	2f2f 0040      	movel %sp@(64),%sp@-
 22a:	2f04           	movel %d4,%sp@-
 22c:	4e92           	jsr %a2@
 22e:	588f           	addql #4,%sp
 230:	2e80           	movel %d0,%sp@
 232:	2f03           	movel %d3,%sp@-
 234:	4eb9 0000 0000 	jsr 0 <___mulsc3>
 23a:	588f           	addql #4,%sp
 23c:	2ebc 7f80 0000 	movel #2139095040,%sp@
 242:	2f00           	movel %d0,%sp@-
 244:	4e92           	jsr %a2@
 246:	508f           	addql #8,%sp
 248:	2600           	movel %d0,%d3
 24a:	2002           	movel %d2,%d0
 24c:	2203           	movel %d3,%d1
 24e:	4cdf 7cfc      	moveml %sp@+,%d2-%d7/%a2-%fp
 252:	508f           	addql #8,%sp
 254:	4e75           	rts
 256:	7000           	moveq #0,%d0
 258:	4a85           	tstl %d5
 25a:	6c06           	bges 262 <___mulsc3+0x262>
 25c:	203c 8000 0000 	movel #-2147483648,%d0
 262:	2a00           	movel %d0,%d5
 264:	608c           	bras 1f2 <___mulsc3+0x1f2>
 266:	7000           	moveq #0,%d0
 268:	222f 0040      	movel %sp@(64),%d1
 26c:	6c06           	bges 274 <___mulsc3+0x274>
 26e:	203c 8000 0000 	movel #-2147483648,%d0
 274:	2f40 0040      	movel %d0,%sp@(64)
 278:	6000 ff6c      	braw 1e6 <___mulsc3+0x1e6>
 27c:	7000           	moveq #0,%d0
 27e:	4a84           	tstl %d4
 280:	6c06           	bges 288 <___mulsc3+0x288>
 282:	203c 8000 0000 	movel #-2147483648,%d0
 288:	2800           	movel %d0,%d4
 28a:	6000 ff48      	braw 1d4 <___mulsc3+0x1d4>
 28e:	7000           	moveq #0,%d0
 290:	4a86           	tstl %d6
 292:	6c06           	bges 29a <___mulsc3+0x29a>
 294:	203c 8000 0000 	movel #-2147483648,%d0
 29a:	2c00           	movel %d0,%d6
 29c:	6000 ff28      	braw 1c6 <___mulsc3+0x1c6>
 2a0:	203c 3f80 0000 	movel #1065353216,%d0
 2a6:	4a86           	tstl %d6
 2a8:	6c06           	bges 2b0 <___mulsc3+0x2b0>
 2aa:	203c bf80 0000 	movel #-1082130432,%d0
 2b0:	2c00           	movel %d0,%d6
 2b2:	2f04           	movel %d4,%sp@-
 2b4:	2f04           	movel %d4,%sp@-
 2b6:	4e94           	jsr %a4@
 2b8:	588f           	addql #4,%sp
 2ba:	2e80           	movel %d0,%sp@
 2bc:	2f00           	movel %d0,%sp@-
 2be:	4e93           	jsr %a3@
 2c0:	508f           	addql #8,%sp
 2c2:	4a80           	tstl %d0
 2c4:	670e           	beqs 2d4 <___mulsc3+0x2d4>
 2c6:	2f04           	movel %d4,%sp@-
 2c8:	2f04           	movel %d4,%sp@-
 2ca:	4e93           	jsr %a3@
 2cc:	508f           	addql #8,%sp
 2ce:	4a80           	tstl %d0
 2d0:	6700 00ea      	beqw 3bc <___mulsc3+0x3bc>
 2d4:	7000           	moveq #0,%d0
 2d6:	0880 001f      	bclr #31,%d0
 2da:	4a84           	tstl %d4
 2dc:	6c06           	bges 2e4 <___mulsc3+0x2e4>
 2de:	0680 8000 0000 	addil #-2147483648,%d0
 2e4:	2800           	movel %d0,%d4
 2e6:	2f2f 0040      	movel %sp@(64),%sp@-
 2ea:	2f2f 0044      	movel %sp@(68),%sp@-
 2ee:	4e93           	jsr %a3@
 2f0:	508f           	addql #8,%sp
 2f2:	4a80           	tstl %d0
 2f4:	6600 00e8      	bnew 3de <___mulsc3+0x3de>
 2f8:	2f05           	movel %d5,%sp@-
 2fa:	2f05           	movel %d5,%sp@-
 2fc:	4e93           	jsr %a3@
 2fe:	508f           	addql #8,%sp
 300:	4a80           	tstl %d0
 302:	6600 00c2      	bnew 3c6 <___mulsc3+0x3c6>
 306:	1f7c 0001 0033 	moveb #1,%sp@(51)
 30c:	6000 fdca      	braw d8 <___mulsc3+0xd8>
 310:	203c 3f80 0000 	movel #1065353216,%d0
 316:	222f 0040      	movel %sp@(64),%d1
 31a:	6c06           	bges 322 <___mulsc3+0x322>
 31c:	203c bf80 0000 	movel #-1082130432,%d0
 322:	2f40 0040      	movel %d0,%sp@(64)
 326:	2f05           	movel %d5,%sp@-
 328:	2f05           	movel %d5,%sp@-
 32a:	4e94           	jsr %a4@
 32c:	588f           	addql #4,%sp
 32e:	2e80           	movel %d0,%sp@
 330:	2f00           	movel %d0,%sp@-
 332:	4e93           	jsr %a3@
 334:	508f           	addql #8,%sp
 336:	4a80           	tstl %d0
 338:	670c           	beqs 346 <___mulsc3+0x346>
 33a:	2f05           	movel %d5,%sp@-
 33c:	2f05           	movel %d5,%sp@-
 33e:	4e93           	jsr %a3@
 340:	508f           	addql #8,%sp
 342:	4a80           	tstl %d0
 344:	6760           	beqs 3a6 <___mulsc3+0x3a6>
 346:	7000           	moveq #0,%d0
 348:	0880 001f      	bclr #31,%d0
 34c:	4a85           	tstl %d5
 34e:	6c06           	bges 356 <___mulsc3+0x356>
 350:	0680 8000 0000 	addil #-2147483648,%d0
 356:	2a00           	movel %d0,%d5
 358:	2f06           	movel %d6,%sp@-
 35a:	2f06           	movel %d6,%sp@-
 35c:	4e93           	jsr %a3@
 35e:	508f           	addql #8,%sp
 360:	4a80           	tstl %d0
 362:	6620           	bnes 384 <___mulsc3+0x384>
 364:	2f04           	movel %d4,%sp@-
 366:	2f04           	movel %d4,%sp@-
 368:	4e93           	jsr %a3@
 36a:	508f           	addql #8,%sp
 36c:	4a80           	tstl %d0
 36e:	6700 fe82      	beqw 1f2 <___mulsc3+0x1f2>
 372:	7000           	moveq #0,%d0
 374:	4a84           	tstl %d4
 376:	6c06           	bges 37e <___mulsc3+0x37e>
 378:	203c 8000 0000 	movel #-2147483648,%d0
 37e:	2800           	movel %d0,%d4
 380:	6000 fe70      	braw 1f2 <___mulsc3+0x1f2>
 384:	7000           	moveq #0,%d0
 386:	4a86           	tstl %d6
 388:	6c06           	bges 390 <___mulsc3+0x390>
 38a:	203c 8000 0000 	movel #-2147483648,%d0
 390:	2c00           	movel %d0,%d6
 392:	60d0           	bras 364 <___mulsc3+0x364>
 394:	7000           	moveq #0,%d0
 396:	222f 0040      	movel %sp@(64),%d1
 39a:	6c06           	bges 3a2 <___mulsc3+0x3a2>
 39c:	203c 8000 0000 	movel #-2147483648,%d0
 3a2:	2f40 0040      	movel %d0,%sp@(64)
 3a6:	203c 3f80 0000 	movel #1065353216,%d0
 3ac:	609a           	bras 348 <___mulsc3+0x348>
 3ae:	7000           	moveq #0,%d0
 3b0:	4a86           	tstl %d6
 3b2:	6c06           	bges 3ba <___mulsc3+0x3ba>
 3b4:	203c 8000 0000 	movel #-2147483648,%d0
 3ba:	2c00           	movel %d0,%d6
 3bc:	203c 3f80 0000 	movel #1065353216,%d0
 3c2:	6000 ff12      	braw 2d6 <___mulsc3+0x2d6>
 3c6:	7000           	moveq #0,%d0
 3c8:	4a85           	tstl %d5
 3ca:	6c06           	bges 3d2 <___mulsc3+0x3d2>
 3cc:	203c 8000 0000 	movel #-2147483648,%d0
 3d2:	2a00           	movel %d0,%d5
 3d4:	1f7c 0001 0033 	moveb #1,%sp@(51)
 3da:	6000 fcfc      	braw d8 <___mulsc3+0xd8>
 3de:	7000           	moveq #0,%d0
 3e0:	222f 0040      	movel %sp@(64),%d1
 3e4:	6c06           	bges 3ec <___mulsc3+0x3ec>
 3e6:	203c 8000 0000 	movel #-2147483648,%d0
 3ec:	2f40 0040      	movel %d0,%sp@(64)
 3f0:	6000 ff06      	braw 2f8 <___mulsc3+0x2f8>

_muldc3.o:     file format a.out-zero-big


Disassembly of section .text:

00000000 <___muldc3>:
   0:	4fef ffd8      	lea %sp@(-40),%sp
   4:	48e7 3f3e      	moveml %d2-%d7/%a2-%fp,%sp@-
   8:	2649           	moveal %a1,%a3
   a:	45f9 0000 0000 	lea 0 <___muldc3>,%a2
  10:	2f2f 006c      	movel %sp@(108),%sp@-
  14:	2f2f 006c      	movel %sp@(108),%sp@-
  18:	2f2f 0064      	movel %sp@(100),%sp@-
  1c:	2f2f 0064      	movel %sp@(100),%sp@-
  20:	4e92           	jsr %a2@
  22:	4fef 0010      	lea %sp@(16),%sp
  26:	2800           	movel %d0,%d4
  28:	2a01           	movel %d1,%d5
  2a:	2f44 0034      	movel %d4,%sp@(52)
  2e:	2f45 0038      	movel %d5,%sp@(56)
  32:	2f2f 0074      	movel %sp@(116),%sp@-
  36:	2f2f 0074      	movel %sp@(116),%sp@-
  3a:	2f2f 006c      	movel %sp@(108),%sp@-
  3e:	2f2f 006c      	movel %sp@(108),%sp@-
  42:	4e92           	jsr %a2@
  44:	4fef 0010      	lea %sp@(16),%sp
  48:	2400           	movel %d0,%d2
  4a:	2601           	movel %d1,%d3
  4c:	2f42 003c      	movel %d2,%sp@(60)
  50:	2f43 0040      	movel %d3,%sp@(64)
  54:	2f2f 0074      	movel %sp@(116),%sp@-
  58:	2f2f 0074      	movel %sp@(116),%sp@-
  5c:	2f2f 0064      	movel %sp@(100),%sp@-
  60:	2f2f 0064      	movel %sp@(100),%sp@-
  64:	4e92           	jsr %a2@
  66:	4fef 0010      	lea %sp@(16),%sp
  6a:	2840           	moveal %d0,%a4
  6c:	2a41           	moveal %d1,%a5
  6e:	2f4c 0044      	movel %a4,%sp@(68)
  72:	2f4d 0048      	movel %a5,%sp@(72)
  76:	2f2f 006c      	movel %sp@(108),%sp@-
  7a:	2f2f 006c      	movel %sp@(108),%sp@-
  7e:	2f2f 006c      	movel %sp@(108),%sp@-
  82:	2f2f 006c      	movel %sp@(108),%sp@-
  86:	4e92           	jsr %a2@
  88:	4fef 0010      	lea %sp@(16),%sp
  8c:	2c00           	movel %d0,%d6
  8e:	2e01           	movel %d1,%d7
  90:	2f46 004c      	movel %d6,%sp@(76)
  94:	2f47 0050      	movel %d7,%sp@(80)
  98:	2f03           	movel %d3,%sp@-
  9a:	2f02           	movel %d2,%sp@-
  9c:	2f05           	movel %d5,%sp@-
  9e:	2f04           	movel %d4,%sp@-
  a0:	4eb9 0000 0000 	jsr 0 <___muldc3>
  a6:	4fef 0010      	lea %sp@(16),%sp
  aa:	2400           	movel %d0,%d2
  ac:	2601           	movel %d1,%d3
  ae:	2f42 002c      	movel %d2,%sp@(44)
  b2:	2f43 0030      	movel %d3,%sp@(48)
  b6:	4df9 0000 0000 	lea 0 <___muldc3>,%fp
  bc:	2f07           	movel %d7,%sp@-
  be:	2f06           	movel %d6,%sp@-
  c0:	2f0d           	movel %a5,%sp@-
  c2:	2f0c           	movel %a4,%sp@-
  c4:	4e96           	jsr %fp@
  c6:	4fef 0010      	lea %sp@(16),%sp
  ca:	2800           	movel %d0,%d4
  cc:	2a01           	movel %d1,%d5
  ce:	2c04           	movel %d4,%d6
  d0:	2e05           	movel %d5,%d7
  d2:	49f9 0000 0000 	lea 0 <___muldc3>,%a4
  d8:	2f03           	movel %d3,%sp@-
  da:	2f02           	movel %d2,%sp@-
  dc:	2f03           	movel %d3,%sp@-
  de:	2f02           	movel %d2,%sp@-
  e0:	4e94           	jsr %a4@
  e2:	4fef 0010      	lea %sp@(16),%sp
  e6:	4a80           	tstl %d0
  e8:	661e           	bnes 108 <___muldc3+0x108>
  ea:	26af 002c      	movel %sp@(44),%a3@
  ee:	276f 0030 0004 	movel %sp@(48),%a3@(4)
  f4:	2746 0008      	movel %d6,%a3@(8)
  f8:	2747 000c      	movel %d7,%a3@(12)
  fc:	200b           	movel %a3,%d0
  fe:	4cdf 7cfc      	moveml %sp@+,%d2-%d7/%a2-%fp
 102:	4fef 0028      	lea %sp@(40),%sp
 106:	4e75           	rts
 108:	2f05           	movel %d5,%sp@-
 10a:	2f04           	movel %d4,%sp@-
 10c:	2f05           	movel %d5,%sp@-
 10e:	2f04           	movel %d4,%sp@-
 110:	4e94           	jsr %a4@
 112:	4fef 0010      	lea %sp@(16),%sp
 116:	4a80           	tstl %d0
 118:	67d0           	beqs ea <___muldc3+0xea>
 11a:	2f2f 005c      	movel %sp@(92),%sp@-
 11e:	2f2f 005c      	movel %sp@(92),%sp@-
 122:	2f2f 0064      	movel %sp@(100),%sp@-
 126:	2f2f 0064      	movel %sp@(100),%sp@-
 12a:	4eb9 0000 0000 	jsr 0 <___muldc3>
 130:	4fef 0010      	lea %sp@(16),%sp
 134:	2040           	moveal %d0,%a0
 136:	2f01           	movel %d1,%sp@-
 138:	2f08           	movel %a0,%sp@-
 13a:	2f01           	movel %d1,%sp@-
 13c:	2f08           	movel %a0,%sp@-
 13e:	4e94           	jsr %a4@
 140:	4fef 0010      	lea %sp@(16),%sp
 144:	4a80           	tstl %d0
 146:	671c           	beqs 164 <___muldc3+0x164>
 148:	2f2f 005c      	movel %sp@(92),%sp@-
 14c:	2f2f 005c      	movel %sp@(92),%sp@-
 150:	2f2f 0064      	movel %sp@(100),%sp@-
 154:	2f2f 0064      	movel %sp@(100),%sp@-
 158:	4e94           	jsr %a4@
 15a:	4fef 0010      	lea %sp@(16),%sp
 15e:	4a80           	tstl %d0
 160:	6700 03cc      	beqw 52e <___muldc3+0x52e>
 164:	2f2f 0064      	movel %sp@(100),%sp@-
 168:	2f2f 0064      	movel %sp@(100),%sp@-
 16c:	2f2f 006c      	movel %sp@(108),%sp@-
 170:	2f2f 006c      	movel %sp@(108),%sp@-
 174:	4eb9 0000 0000 	jsr 0 <___muldc3>
 17a:	4fef 0010      	lea %sp@(16),%sp
 17e:	2040           	moveal %d0,%a0
 180:	2f01           	movel %d1,%sp@-
 182:	2f08           	movel %a0,%sp@-
 184:	2f01           	movel %d1,%sp@-
 186:	2f08           	movel %a0,%sp@-
 188:	4e94           	jsr %a4@
 18a:	4fef 0010      	lea %sp@(16),%sp
 18e:	4a80           	tstl %d0
 190:	671c           	beqs 1ae <___muldc3+0x1ae>
 192:	2f2f 0064      	movel %sp@(100),%sp@-
 196:	2f2f 0064      	movel %sp@(100),%sp@-
 19a:	2f2f 006c      	movel %sp@(108),%sp@-
 19e:	2f2f 006c      	movel %sp@(108),%sp@-
 1a2:	4e94           	jsr %a4@
 1a4:	4fef 0010      	lea %sp@(16),%sp
 1a8:	4a80           	tstl %d0
 1aa:	6700 0560      	beqw 70c <___muldc3+0x70c>
 1ae:	4202           	clrb %d2
 1b0:	2f2f 006c      	movel %sp@(108),%sp@-
 1b4:	2f2f 006c      	movel %sp@(108),%sp@-
 1b8:	2f2f 0074      	movel %sp@(116),%sp@-
 1bc:	2f2f 0074      	movel %sp@(116),%sp@-
 1c0:	4eb9 0000 0000 	jsr 0 <___muldc3>
 1c6:	4fef 0010      	lea %sp@(16),%sp
 1ca:	2040           	moveal %d0,%a0
 1cc:	2f01           	movel %d1,%sp@-
 1ce:	2f08           	movel %a0,%sp@-
 1d0:	2f01           	movel %d1,%sp@-
 1d2:	2f08           	movel %a0,%sp@-
 1d4:	4e94           	jsr %a4@
 1d6:	4fef 0010      	lea %sp@(16),%sp
 1da:	4a80           	tstl %d0
 1dc:	671c           	beqs 1fa <___muldc3+0x1fa>
 1de:	2f2f 006c      	movel %sp@(108),%sp@-
 1e2:	2f2f 006c      	movel %sp@(108),%sp@-
 1e6:	2f2f 0074      	movel %sp@(116),%sp@-
 1ea:	2f2f 0074      	movel %sp@(116),%sp@-
 1ee:	4e94           	jsr %a4@
 1f0:	4fef 0010      	lea %sp@(16),%sp
 1f4:	4a80           	tstl %d0
 1f6:	6700 03fa      	beqw 5f2 <___muldc3+0x5f2>
 1fa:	2f2f 0074      	movel %sp@(116),%sp@-
 1fe:	2f2f 0074      	movel %sp@(116),%sp@-
 202:	2f2f 007c      	movel %sp@(124),%sp@-
 206:	2f2f 007c      	movel %sp@(124),%sp@-
 20a:	4eb9 0000 0000 	jsr 0 <___muldc3>
 210:	4fef 0010      	lea %sp@(16),%sp
 214:	2040           	moveal %d0,%a0
 216:	2f01           	movel %d1,%sp@-
 218:	2f08           	movel %a0,%sp@-
 21a:	2f01           	movel %d1,%sp@-
 21c:	2f08           	movel %a0,%sp@-
 21e:	4e94           	jsr %a4@
 220:	4fef 0010      	lea %sp@(16),%sp
 224:	4a80           	tstl %d0
 226:	671c           	beqs 244 <___muldc3+0x244>
 228:	2f2f 0074      	movel %sp@(116),%sp@-
 22c:	2f2f 0074      	movel %sp@(116),%sp@-
 230:	2f2f 007c      	movel %sp@(124),%sp@-
 234:	2f2f 007c      	movel %sp@(124),%sp@-
 238:	4e94           	jsr %a4@
 23a:	4fef 0010      	lea %sp@(16),%sp
 23e:	4a80           	tstl %d0
 240:	6700 04a6      	beqw 6e8 <___muldc3+0x6e8>
 244:	4a02           	tstb %d2
 246:	6600 019a      	bnew 3e2 <___muldc3+0x3e2>
 24a:	2f2f 0038      	movel %sp@(56),%sp@-
 24e:	2f2f 0038      	movel %sp@(56),%sp@-
 252:	2f2f 0040      	movel %sp@(64),%sp@-
 256:	2f2f 0040      	movel %sp@(64),%sp@-
 25a:	4eb9 0000 0000 	jsr 0 <___muldc3>
 260:	4fef 0010      	lea %sp@(16),%sp
 264:	2040           	moveal %d0,%a0
 266:	2f01           	movel %d1,%sp@-
 268:	2f08           	movel %a0,%sp@-
 26a:	2f01           	movel %d1,%sp@-
 26c:	2f08           	movel %a0,%sp@-
 26e:	4e94           	jsr %a4@
 270:	4fef 0010      	lea %sp@(16),%sp
 274:	4a80           	tstl %d0
 276:	671c           	beqs 294 <___muldc3+0x294>
 278:	2f2f 0038      	movel %sp@(56),%sp@-
 27c:	2f2f 0038      	movel %sp@(56),%sp@-
 280:	2f2f 0040      	movel %sp@(64),%sp@-
 284:	2f2f 0040      	movel %sp@(64),%sp@-
 288:	4e94           	jsr %a4@
 28a:	4fef 0010      	lea %sp@(16),%sp
 28e:	4a80           	tstl %d0
 290:	6700 00e0      	beqw 372 <___muldc3+0x372>
 294:	2f2f 0040      	movel %sp@(64),%sp@-
 298:	2f2f 0040      	movel %sp@(64),%sp@-
 29c:	2f2f 0048      	movel %sp@(72),%sp@-
 2a0:	2f2f 0048      	movel %sp@(72),%sp@-
 2a4:	4eb9 0000 0000 	jsr 0 <___muldc3>
 2aa:	4fef 0010      	lea %sp@(16),%sp
 2ae:	2040           	moveal %d0,%a0
 2b0:	2f01           	movel %d1,%sp@-
 2b2:	2f08           	movel %a0,%sp@-
 2b4:	2f01           	movel %d1,%sp@-
 2b6:	2f08           	movel %a0,%sp@-
 2b8:	4e94           	jsr %a4@
 2ba:	4fef 0010      	lea %sp@(16),%sp
 2be:	4a80           	tstl %d0
 2c0:	671c           	beqs 2de <___muldc3+0x2de>
 2c2:	2f2f 0040      	movel %sp@(64),%sp@-
 2c6:	2f2f 0040      	movel %sp@(64),%sp@-
 2ca:	2f2f 0048      	movel %sp@(72),%sp@-
 2ce:	2f2f 0048      	movel %sp@(72),%sp@-
 2d2:	4e94           	jsr %a4@
 2d4:	4fef 0010      	lea %sp@(16),%sp
 2d8:	4a80           	tstl %d0
 2da:	6700 0096      	beqw 372 <___muldc3+0x372>
 2de:	2f2f 0048      	movel %sp@(72),%sp@-
 2e2:	2f2f 0048      	movel %sp@(72),%sp@-
 2e6:	2f2f 0050      	movel %sp@(80),%sp@-
 2ea:	2f2f 0050      	movel %sp@(80),%sp@-
 2ee:	4eb9 0000 0000 	jsr 0 <___muldc3>
 2f4:	4fef 0010      	lea %sp@(16),%sp
 2f8:	2040           	moveal %d0,%a0
 2fa:	2f01           	movel %d1,%sp@-
 2fc:	2f08           	movel %a0,%sp@-
 2fe:	2f01           	movel %d1,%sp@-
 300:	2f08           	movel %a0,%sp@-
 302:	4e94           	jsr %a4@
 304:	4fef 0010      	lea %sp@(16),%sp
 308:	4a80           	tstl %d0
 30a:	671a           	beqs 326 <___muldc3+0x326>
 30c:	2f2f 0048      	movel %sp@(72),%sp@-
 310:	2f2f 0048      	movel %sp@(72),%sp@-
 314:	2f2f 0050      	movel %sp@(80),%sp@-
 318:	2f2f 0050      	movel %sp@(80),%sp@-
 31c:	4e94           	jsr %a4@
 31e:	4fef 0010      	lea %sp@(16),%sp
 322:	4a80           	tstl %d0
 324:	674c           	beqs 372 <___muldc3+0x372>
 326:	2f2f 0050      	movel %sp@(80),%sp@-
 32a:	2f2f 0050      	movel %sp@(80),%sp@-
 32e:	2f2f 0058      	movel %sp@(88),%sp@-
 332:	2f2f 0058      	movel %sp@(88),%sp@-
 336:	4eb9 0000 0000 	jsr 0 <___muldc3>
 33c:	4fef 0010      	lea %sp@(16),%sp
 340:	2040           	moveal %d0,%a0
 342:	2f01           	movel %d1,%sp@-
 344:	2f08           	movel %a0,%sp@-
 346:	2f01           	movel %d1,%sp@-
 348:	2f08           	movel %a0,%sp@-
 34a:	4e94           	jsr %a4@
 34c:	4fef 0010      	lea %sp@(16),%sp
 350:	4a80           	tstl %d0
 352:	6700 fd96      	beqw ea <___muldc3+0xea>
 356:	2f2f 0050      	movel %sp@(80),%sp@-
 35a:	2f2f 0050      	movel %sp@(80),%sp@-
 35e:	2f2f 0058      	movel %sp@(88),%sp@-
 362:	2f2f 0058      	movel %sp@(88),%sp@-
 366:	4e94           	jsr %a4@
 368:	4fef 0010      	lea %sp@(16),%sp
 36c:	4a80           	tstl %d0
 36e:	6600 fd7a      	bnew ea <___muldc3+0xea>
 372:	2f2f 005c      	movel %sp@(92),%sp@-
 376:	2f2f 005c      	movel %sp@(92),%sp@-
 37a:	2f2f 0064      	movel %sp@(100),%sp@-
 37e:	2f2f 0064      	movel %sp@(100),%sp@-
 382:	4e94           	jsr %a4@
 384:	4fef 0010      	lea %sp@(16),%sp
 388:	4a80           	tstl %d0
 38a:	6600 0184      	bnew 510 <___muldc3+0x510>
 38e:	2f2f 0064      	movel %sp@(100),%sp@-
 392:	2f2f 0064      	movel %sp@(100),%sp@-
 396:	2f2f 006c      	movel %sp@(108),%sp@-
 39a:	2f2f 006c      	movel %sp@(108),%sp@-
 39e:	4e94           	jsr %a4@
 3a0:	4fef 0010      	lea %sp@(16),%sp
 3a4:	4a80           	tstl %d0
 3a6:	6600 014a      	bnew 4f2 <___muldc3+0x4f2>
 3aa:	2f2f 006c      	movel %sp@(108),%sp@-
 3ae:	2f2f 006c      	movel %sp@(108),%sp@-
 3b2:	2f2f 0074      	movel %sp@(116),%sp@-
 3b6:	2f2f 0074      	movel %sp@(116),%sp@-
 3ba:	4e94           	jsr %a4@
 3bc:	4fef 0010      	lea %sp@(16),%sp
 3c0:	4a80           	tstl %d0
 3c2:	6600 0110      	bnew 4d4 <___muldc3+0x4d4>
 3c6:	2f2f 0074      	movel %sp@(116),%sp@-
 3ca:	2f2f 0074      	movel %sp@(116),%sp@-
 3ce:	2f2f 007c      	movel %sp@(124),%sp@-
 3d2:	2f2f 007c      	movel %sp@(124),%sp@-
 3d6:	4e94           	jsr %a4@
 3d8:	4fef 0010      	lea %sp@(16),%sp
 3dc:	4a80           	tstl %d0
 3de:	6600 00d6      	bnew 4b6 <___muldc3+0x4b6>
 3e2:	2f2f 006c      	movel %sp@(108),%sp@-
 3e6:	2f2f 006c      	movel %sp@(108),%sp@-
 3ea:	2f2f 0064      	movel %sp@(100),%sp@-
 3ee:	2f2f 0064      	movel %sp@(100),%sp@-
 3f2:	4e92           	jsr %a2@
 3f4:	4fef 0010      	lea %sp@(16),%sp
 3f8:	2400           	movel %d0,%d2
 3fa:	2601           	movel %d1,%d3
 3fc:	2f2f 0074      	movel %sp@(116),%sp@-
 400:	2f2f 0074      	movel %sp@(116),%sp@-
 404:	2f2f 006c      	movel %sp@(108),%sp@-
 408:	2f2f 006c      	movel %sp@(108),%sp@-
 40c:	4e92           	jsr %a2@
 40e:	4fef 000c      	lea %sp@(12),%sp
 412:	2e81           	movel %d1,%sp@
 414:	2f00           	movel %d0,%sp@-
 416:	2f03           	movel %d3,%sp@-
 418:	2f02           	movel %d2,%sp@-
 41a:	4eb9 0000 0000 	jsr 0 <___muldc3>
 420:	4fef 000c      	lea %sp@(12),%sp
 424:	4297           	clrl %sp@
 426:	2f3c 7ff0 0000 	movel #2146435072,%sp@-
 42c:	2f01           	movel %d1,%sp@-
 42e:	2f00           	movel %d0,%sp@-
 430:	4e92           	jsr %a2@
 432:	4fef 0010      	lea %sp@(16),%sp
 436:	2040           	moveal %d0,%a0
 438:	2008           	movel %a0,%d0
 43a:	2f40 002c      	movel %d0,%sp@(44)
 43e:	2f41 0030      	movel %d1,%sp@(48)
 442:	2f2f 0074      	movel %sp@(116),%sp@-
 446:	2f2f 0074      	movel %sp@(116),%sp@-
 44a:	2f2f 0064      	movel %sp@(100),%sp@-
 44e:	2f2f 0064      	movel %sp@(100),%sp@-
 452:	4e92           	jsr %a2@
 454:	4fef 0010      	lea %sp@(16),%sp
 458:	2400           	movel %d0,%d2
 45a:	2601           	movel %d1,%d3
 45c:	2f2f 006c      	movel %sp@(108),%sp@-
 460:	2f2f 006c      	movel %sp@(108),%sp@-
 464:	2f2f 006c      	movel %sp@(108),%sp@-
 468:	2f2f 006c      	movel %sp@(108),%sp@-
 46c:	4e92           	jsr %a2@
 46e:	4fef 000c      	lea %sp@(12),%sp
 472:	2e81           	movel %d1,%sp@
 474:	2f00           	movel %d0,%sp@-
 476:	2f03           	movel %d3,%sp@-
 478:	2f02           	movel %d2,%sp@-
 47a:	4e96           	jsr %fp@
 47c:	4fef 000c      	lea %sp@(12),%sp
 480:	4297           	clrl %sp@
 482:	2f3c 7ff0 0000 	movel #2146435072,%sp@-
 488:	2f01           	movel %d1,%sp@-
 48a:	2f00           	movel %d0,%sp@-
 48c:	4e92           	jsr %a2@
 48e:	4fef 0010      	lea %sp@(16),%sp
 492:	2240           	moveal %d0,%a1
 494:	2c09           	movel %a1,%d6
 496:	2e01           	movel %d1,%d7
 498:	26af 002c      	movel %sp@(44),%a3@
 49c:	276f 0030 0004 	movel %sp@(48),%a3@(4)
 4a2:	2746 0008      	movel %d6,%a3@(8)
 4a6:	2747 000c      	movel %d7,%a3@(12)
 4aa:	200b           	movel %a3,%d0
 4ac:	4cdf 7cfc      	moveml %sp@+,%d2-%d7/%a2-%fp
 4b0:	4fef 0028      	lea %sp@(40),%sp
 4b4:	4e75           	rts
 4b6:	7000           	moveq #0,%d0
 4b8:	222f 0070      	movel %sp@(112),%d1
 4bc:	6c06           	bges 4c4 <___muldc3+0x4c4>
 4be:	203c 8000 0000 	movel #-2147483648,%d0
 4c4:	93c9           	subal %a1,%a1
 4c6:	2209           	movel %a1,%d1
 4c8:	2f40 0070      	movel %d0,%sp@(112)
 4cc:	2f41 0074      	movel %d1,%sp@(116)
 4d0:	6000 ff10      	braw 3e2 <___muldc3+0x3e2>
 4d4:	7000           	moveq #0,%d0
 4d6:	222f 0068      	movel %sp@(104),%d1
 4da:	6c06           	bges 4e2 <___muldc3+0x4e2>
 4dc:	203c 8000 0000 	movel #-2147483648,%d0
 4e2:	93c9           	subal %a1,%a1
 4e4:	2209           	movel %a1,%d1
 4e6:	2f40 0068      	movel %d0,%sp@(104)
 4ea:	2f41 006c      	movel %d1,%sp@(108)
 4ee:	6000 fed6      	braw 3c6 <___muldc3+0x3c6>
 4f2:	7000           	moveq #0,%d0
 4f4:	222f 0060      	movel %sp@(96),%d1
 4f8:	6c06           	bges 500 <___muldc3+0x500>
 4fa:	203c 8000 0000 	movel #-2147483648,%d0
 500:	93c9           	subal %a1,%a1
 502:	2209           	movel %a1,%d1
 504:	2f40 0060      	movel %d0,%sp@(96)
 508:	2f41 0064      	movel %d1,%sp@(100)
 50c:	6000 fe9c      	braw 3aa <___muldc3+0x3aa>
 510:	7000           	moveq #0,%d0
 512:	222f 0058      	movel %sp@(88),%d1
 516:	6c06           	bges 51e <___muldc3+0x51e>
 518:	203c 8000 0000 	movel #-2147483648,%d0
 51e:	93c9           	subal %a1,%a1
 520:	2209           	movel %a1,%d1
 522:	2f40 0058      	movel %d0,%sp@(88)
 526:	2f41 005c      	movel %d1,%sp@(92)
 52a:	6000 fe62      	braw 38e <___muldc3+0x38e>
 52e:	203c 3ff0 0000 	movel #1072693248,%d0
 534:	222f 0058      	movel %sp@(88),%d1
 538:	6c06           	bges 540 <___muldc3+0x540>
 53a:	203c bff0 0000 	movel #-1074790400,%d0
 540:	93c9           	subal %a1,%a1
 542:	2209           	movel %a1,%d1
 544:	2f40 0058      	movel %d0,%sp@(88)
 548:	2f41 005c      	movel %d1,%sp@(92)
 54c:	2f2f 0064      	movel %sp@(100),%sp@-
 550:	2f2f 0064      	movel %sp@(100),%sp@-
 554:	2f2f 006c      	movel %sp@(108),%sp@-
 558:	2f2f 006c      	movel %sp@(108),%sp@-
 55c:	4eb9 0000 0000 	jsr 0 <___muldc3>
 562:	4fef 0010      	lea %sp@(16),%sp
 566:	2040           	moveal %d0,%a0
 568:	2f01           	movel %d1,%sp@-
 56a:	2f08           	movel %a0,%sp@-
 56c:	2f01           	movel %d1,%sp@-
 56e:	2f08           	movel %a0,%sp@-
 570:	4e94           	jsr %a4@
 572:	4fef 0010      	lea %sp@(16),%sp
 576:	4a80           	tstl %d0
 578:	671c           	beqs 596 <___muldc3+0x596>
 57a:	2f2f 0064      	movel %sp@(100),%sp@-
 57e:	2f2f 0064      	movel %sp@(100),%sp@-
 582:	2f2f 006c      	movel %sp@(108),%sp@-
 586:	2f2f 006c      	movel %sp@(108),%sp@-
 58a:	4e94           	jsr %a4@
 58c:	4fef 0010      	lea %sp@(16),%sp
 590:	4a80           	tstl %d0
 592:	6700 0192      	beqw 726 <___muldc3+0x726>
 596:	7000           	moveq #0,%d0
 598:	0880 001f      	bclr #31,%d0
 59c:	222f 0060      	movel %sp@(96),%d1
 5a0:	6c06           	bges 5a8 <___muldc3+0x5a8>
 5a2:	0680 8000 0000 	addil #-2147483648,%d0
 5a8:	93c9           	subal %a1,%a1
 5aa:	2209           	movel %a1,%d1
 5ac:	2f40 0060      	movel %d0,%sp@(96)
 5b0:	2f41 0064      	movel %d1,%sp@(100)
 5b4:	2f2f 006c      	movel %sp@(108),%sp@-
 5b8:	2f2f 006c      	movel %sp@(108),%sp@-
 5bc:	2f2f 0074      	movel %sp@(116),%sp@-
 5c0:	2f2f 0074      	movel %sp@(116),%sp@-
 5c4:	4e94           	jsr %a4@
 5c6:	4fef 0010      	lea %sp@(16),%sp
 5ca:	4a80           	tstl %d0
 5cc:	6600 0182      	bnew 750 <___muldc3+0x750>
 5d0:	2f2f 0074      	movel %sp@(116),%sp@-
 5d4:	2f2f 0074      	movel %sp@(116),%sp@-
 5d8:	2f2f 007c      	movel %sp@(124),%sp@-
 5dc:	2f2f 007c      	movel %sp@(124),%sp@-
 5e0:	4e94           	jsr %a4@
 5e2:	4fef 0010      	lea %sp@(16),%sp
 5e6:	4a80           	tstl %d0
 5e8:	6600 0146      	bnew 730 <___muldc3+0x730>
 5ec:	7401           	moveq #1,%d2
 5ee:	6000 fbc0      	braw 1b0 <___muldc3+0x1b0>
 5f2:	203c 3ff0 0000 	movel #1072693248,%d0
 5f8:	222f 0068      	movel %sp@(104),%d1
 5fc:	6c06           	bges 604 <___muldc3+0x604>
 5fe:	203c bff0 0000 	movel #-1074790400,%d0
 604:	93c9           	subal %a1,%a1
 606:	2209           	movel %a1,%d1
 608:	2f40 0068      	movel %d0,%sp@(104)
 60c:	2f41 006c      	movel %d1,%sp@(108)
 610:	2f2f 0074      	movel %sp@(116),%sp@-
 614:	2f2f 0074      	movel %sp@(116),%sp@-
 618:	2f2f 007c      	movel %sp@(124),%sp@-
 61c:	2f2f 007c      	movel %sp@(124),%sp@-
 620:	4eb9 0000 0000 	jsr 0 <___muldc3>
 626:	4fef 0010      	lea %sp@(16),%sp
 62a:	2040           	moveal %d0,%a0
 62c:	2f01           	movel %d1,%sp@-
 62e:	2f08           	movel %a0,%sp@-
 630:	2f01           	movel %d1,%sp@-
 632:	2f08           	movel %a0,%sp@-
 634:	4e94           	jsr %a4@
 636:	4fef 0010      	lea %sp@(16),%sp
 63a:	4a80           	tstl %d0
 63c:	671c           	beqs 65a <___muldc3+0x65a>
 63e:	2f2f 0074      	movel %sp@(116),%sp@-
 642:	2f2f 0074      	movel %sp@(116),%sp@-
 646:	2f2f 007c      	movel %sp@(124),%sp@-
 64a:	2f2f 007c      	movel %sp@(124),%sp@-
 64e:	4e94           	jsr %a4@
 650:	4fef 0010      	lea %sp@(16),%sp
 654:	4a80           	tstl %d0
 656:	6700 00aa      	beqw 702 <___muldc3+0x702>
 65a:	7000           	moveq #0,%d0
 65c:	0880 001f      	bclr #31,%d0
 660:	222f 0070      	movel %sp@(112),%d1
 664:	6c06           	bges 66c <___muldc3+0x66c>
 666:	0680 8000 0000 	addil #-2147483648,%d0
 66c:	93c9           	subal %a1,%a1
 66e:	2209           	movel %a1,%d1
 670:	2f40 0070      	movel %d0,%sp@(112)
 674:	2f41 0074      	movel %d1,%sp@(116)
 678:	2f2f 005c      	movel %sp@(92),%sp@-
 67c:	2f2f 005c      	movel %sp@(92),%sp@-
 680:	2f2f 0064      	movel %sp@(100),%sp@-
 684:	2f2f 0064      	movel %sp@(100),%sp@-
 688:	4e94           	jsr %a4@
 68a:	4fef 0010      	lea %sp@(16),%sp
 68e:	4a80           	tstl %d0
 690:	663a           	bnes 6cc <___muldc3+0x6cc>
 692:	2f2f 0064      	movel %sp@(100),%sp@-
 696:	2f2f 0064      	movel %sp@(100),%sp@-
 69a:	2f2f 006c      	movel %sp@(108),%sp@-
 69e:	2f2f 006c      	movel %sp@(108),%sp@-
 6a2:	4e94           	jsr %a4@
 6a4:	4fef 0010      	lea %sp@(16),%sp
 6a8:	4a80           	tstl %d0
 6aa:	6700 fd36      	beqw 3e2 <___muldc3+0x3e2>
 6ae:	7000           	moveq #0,%d0
 6b0:	222f 0060      	movel %sp@(96),%d1
 6b4:	6c06           	bges 6bc <___muldc3+0x6bc>
 6b6:	203c 8000 0000 	movel #-2147483648,%d0
 6bc:	93c9           	subal %a1,%a1
 6be:	2209           	movel %a1,%d1
 6c0:	2f40 0060      	movel %d0,%sp@(96)
 6c4:	2f41 0064      	movel %d1,%sp@(100)
 6c8:	6000 fd18      	braw 3e2 <___muldc3+0x3e2>
 6cc:	7000           	moveq #0,%d0
 6ce:	222f 0058      	movel %sp@(88),%d1
 6d2:	6c06           	bges 6da <___muldc3+0x6da>
 6d4:	203c 8000 0000 	movel #-2147483648,%d0
 6da:	93c9           	subal %a1,%a1
 6dc:	2209           	movel %a1,%d1
 6de:	2f40 0058      	movel %d0,%sp@(88)
 6e2:	2f41 005c      	movel %d1,%sp@(92)
 6e6:	60aa           	bras 692 <___muldc3+0x692>
 6e8:	7000           	moveq #0,%d0
 6ea:	222f 0068      	movel %sp@(104),%d1
 6ee:	6c06           	bges 6f6 <___muldc3+0x6f6>
 6f0:	203c 8000 0000 	movel #-2147483648,%d0
 6f6:	93c9           	subal %a1,%a1
 6f8:	2209           	movel %a1,%d1
 6fa:	2f40 0068      	movel %d0,%sp@(104)
 6fe:	2f41 006c      	movel %d1,%sp@(108)
 702:	203c 3ff0 0000 	movel #1072693248,%d0
 708:	6000 ff52      	braw 65c <___muldc3+0x65c>
 70c:	7000           	moveq #0,%d0
 70e:	222f 0058      	movel %sp@(88),%d1
 712:	6c06           	bges 71a <___muldc3+0x71a>
 714:	203c 8000 0000 	movel #-2147483648,%d0
 71a:	93c9           	subal %a1,%a1
 71c:	2209           	movel %a1,%d1
 71e:	2f40 0058      	movel %d0,%sp@(88)
 722:	2f41 005c      	movel %d1,%sp@(92)
 726:	203c 3ff0 0000 	movel #1072693248,%d0
 72c:	6000 fe6a      	braw 598 <___muldc3+0x598>
 730:	7000           	moveq #0,%d0
 732:	222f 0070      	movel %sp@(112),%d1
 736:	6c06           	bges 73e <___muldc3+0x73e>
 738:	203c 8000 0000 	movel #-2147483648,%d0
 73e:	93c9           	subal %a1,%a1
 740:	2209           	movel %a1,%d1
 742:	2f40 0070      	movel %d0,%sp@(112)
 746:	2f41 0074      	movel %d1,%sp@(116)
 74a:	7401           	moveq #1,%d2
 74c:	6000 fa62      	braw 1b0 <___muldc3+0x1b0>
 750:	7000           	moveq #0,%d0
 752:	222f 0068      	movel %sp@(104),%d1
 756:	6c06           	bges 75e <___muldc3+0x75e>
 758:	203c 8000 0000 	movel #-2147483648,%d0
 75e:	93c9           	subal %a1,%a1
 760:	2209           	movel %a1,%d1
 762:	2f40 0068      	movel %d0,%sp@(104)
 766:	2f41 006c      	movel %d1,%sp@(108)
 76a:	6000 fe64      	braw 5d0 <___muldc3+0x5d0>
	...

_mulxc3.o:     file format a.out-zero-big


Disassembly of section .text:

00000000 <___mulxc3-0x3c>:
   0:	3fff           	.short 0x3fff
   2:	0000 8000      	orib #0,%d0
	...
  16:	0000 bfff      	orib #-1,%d0
  1a:	0000 8000      	orib #0,%d0
  1e:	0000 0000      	orib #0,%d0
  22:	0000 8000      	orib #0,%d0
	...
  2e:	0000 7fff      	orib #-1,%d0
  32:	0000 8000      	orib #0,%d0
  36:	0000 0000      	orib #0,%d0
	...

0000003c <___mulxc3>:
  3c:	4fef ff88      	lea %sp@(-120),%sp
  40:	48e7 3f3e      	moveml %d2-%d7/%a2-%fp,%sp@-
  44:	2649           	moveal %a1,%a3
  46:	45f9 0000 0000 	lea 0 <___mulxc3-0x3c>,%a2
  4c:	2f2f 00c8      	movel %sp@(200),%sp@-
  50:	2f2f 00c8      	movel %sp@(200),%sp@-
  54:	2f2f 00c8      	movel %sp@(200),%sp@-
  58:	2f2f 00bc      	movel %sp@(188),%sp@-
  5c:	2f2f 00bc      	movel %sp@(188),%sp@-
  60:	2f2f 00bc      	movel %sp@(188),%sp@-
  64:	43ef 00b0      	lea %sp@(176),%a1
  68:	4e92           	jsr %a2@
  6a:	4fef 0018      	lea %sp@(24),%sp
  6e:	2f6f 0098 002c 	movel %sp@(152),%sp@(44)
  74:	2f6f 009c 0030 	movel %sp@(156),%sp@(48)
  7a:	2f6f 00a0 0034 	movel %sp@(160),%sp@(52)
  80:	2f2f 00d4      	movel %sp@(212),%sp@-
  84:	2f2f 00d4      	movel %sp@(212),%sp@-
  88:	2f2f 00d4      	movel %sp@(212),%sp@-
  8c:	2f2f 00c8      	movel %sp@(200),%sp@-
  90:	2f2f 00c8      	movel %sp@(200),%sp@-
  94:	2f2f 00c8      	movel %sp@(200),%sp@-
  98:	43ef 00b0      	lea %sp@(176),%a1
  9c:	4e92           	jsr %a2@
  9e:	4fef 0018      	lea %sp@(24),%sp
  a2:	2f6f 0098 0038 	movel %sp@(152),%sp@(56)
  a8:	2f6f 009c 003c 	movel %sp@(156),%sp@(60)
  ae:	2f6f 00a0 0040 	movel %sp@(160),%sp@(64)
  b4:	2f2f 00d4      	movel %sp@(212),%sp@-
  b8:	2f2f 00d4      	movel %sp@(212),%sp@-
  bc:	2f2f 00d4      	movel %sp@(212),%sp@-
  c0:	2f2f 00bc      	movel %sp@(188),%sp@-
  c4:	2f2f 00bc      	movel %sp@(188),%sp@-
  c8:	2f2f 00bc      	movel %sp@(188),%sp@-
  cc:	43ef 00b0      	lea %sp@(176),%a1
  d0:	4e92           	jsr %a2@
  d2:	4fef 0018      	lea %sp@(24),%sp
  d6:	2f6f 0098 0044 	movel %sp@(152),%sp@(68)
  dc:	2f6f 009c 0048 	movel %sp@(156),%sp@(72)
  e2:	2f6f 00a0 004c 	movel %sp@(160),%sp@(76)
  e8:	2f2f 00c8      	movel %sp@(200),%sp@-
  ec:	2f2f 00c8      	movel %sp@(200),%sp@-
  f0:	2f2f 00c8      	movel %sp@(200),%sp@-
  f4:	2f2f 00c8      	movel %sp@(200),%sp@-
  f8:	2f2f 00c8      	movel %sp@(200),%sp@-
  fc:	2f2f 00c8      	movel %sp@(200),%sp@-
 100:	43ef 00b0      	lea %sp@(176),%a1
 104:	4e92           	jsr %a2@
 106:	4fef 0018      	lea %sp@(24),%sp
 10a:	286f 0098      	moveal %sp@(152),%a4
 10e:	2a6f 009c      	moveal %sp@(156),%a5
 112:	2c6f 00a0      	moveal %sp@(160),%fp
 116:	2c3c 0000 0000 	movel #0,%d6
 11c:	2f2f 0040      	movel %sp@(64),%sp@-
 120:	2f2f 0040      	movel %sp@(64),%sp@-
 124:	2f2f 0040      	movel %sp@(64),%sp@-
 128:	2f2f 0040      	movel %sp@(64),%sp@-
 12c:	2f2f 0040      	movel %sp@(64),%sp@-
 130:	2f2f 0040      	movel %sp@(64),%sp@-
 134:	43ef 00b0      	lea %sp@(176),%a1
 138:	2046           	moveal %d6,%a0
 13a:	4e90           	jsr %a0@
 13c:	4fef 0018      	lea %sp@(24),%sp
 140:	262f 0098      	movel %sp@(152),%d3
 144:	282f 009c      	movel %sp@(156),%d4
 148:	2a2f 00a0      	movel %sp@(160),%d5
 14c:	2e3c 0000 0000 	movel #0,%d7
 152:	2f0e           	movel %fp,%sp@-
 154:	2f0d           	movel %a5,%sp@-
 156:	2f0c           	movel %a4,%sp@-
 158:	2f2f 0058      	movel %sp@(88),%sp@-
 15c:	2f2f 0058      	movel %sp@(88),%sp@-
 160:	2f2f 0058      	movel %sp@(88),%sp@-
 164:	43ef 00b0      	lea %sp@(176),%a1
 168:	2047           	moveal %d7,%a0
 16a:	4e90           	jsr %a0@
 16c:	4fef 0018      	lea %sp@(24),%sp
 170:	2f6f 0098 0050 	movel %sp@(152),%sp@(80)
 176:	2f6f 009c 0054 	movel %sp@(156),%sp@(84)
 17c:	2f6f 00a0 0058 	movel %sp@(160),%sp@(88)
 182:	243c 0000 0000 	movel #0,%d2
 188:	2f05           	movel %d5,%sp@-
 18a:	2f04           	movel %d4,%sp@-
 18c:	2f03           	movel %d3,%sp@-
 18e:	2f05           	movel %d5,%sp@-
 190:	2f04           	movel %d4,%sp@-
 192:	2f03           	movel %d3,%sp@-
 194:	2042           	moveal %d2,%a0
 196:	4e90           	jsr %a0@
 198:	4fef 0018      	lea %sp@(24),%sp
 19c:	4a80           	tstl %d0
 19e:	6628           	bnes 1c8 <___mulxc3+0x18c>
 1a0:	2683           	movel %d3,%a3@
 1a2:	2744 0004      	movel %d4,%a3@(4)
 1a6:	2745 0008      	movel %d5,%a3@(8)
 1aa:	276f 0050 000c 	movel %sp@(80),%a3@(12)
 1b0:	276f 0054 0010 	movel %sp@(84),%a3@(16)
 1b6:	276f 0058 0014 	movel %sp@(88),%a3@(20)
 1bc:	200b           	movel %a3,%d0
 1be:	4cdf 7cfc      	moveml %sp@+,%d2-%d7/%a2-%fp
 1c2:	4fef 0078      	lea %sp@(120),%sp
 1c6:	4e75           	rts
 1c8:	2f2f 0058      	movel %sp@(88),%sp@-
 1cc:	2f2f 0058      	movel %sp@(88),%sp@-
 1d0:	2f2f 0058      	movel %sp@(88),%sp@-
 1d4:	2f2f 0064      	movel %sp@(100),%sp@-
 1d8:	2f2f 0064      	movel %sp@(100),%sp@-
 1dc:	2f2f 0064      	movel %sp@(100),%sp@-
 1e0:	2042           	moveal %d2,%a0
 1e2:	4e90           	jsr %a0@
 1e4:	4fef 0018      	lea %sp@(24),%sp
 1e8:	4a80           	tstl %d0
 1ea:	67b4           	beqs 1a0 <___mulxc3+0x164>
 1ec:	2f2f 00b0      	movel %sp@(176),%sp@-
 1f0:	2f2f 00b0      	movel %sp@(176),%sp@-
 1f4:	2f2f 00b0      	movel %sp@(176),%sp@-
 1f8:	2f2f 00bc      	movel %sp@(188),%sp@-
 1fc:	2f2f 00bc      	movel %sp@(188),%sp@-
 200:	2f2f 00bc      	movel %sp@(188),%sp@-
 204:	43ef 00b0      	lea %sp@(176),%a1
 208:	2046           	moveal %d6,%a0
 20a:	4e90           	jsr %a0@
 20c:	4fef 0018      	lea %sp@(24),%sp
 210:	2f2f 00a0      	movel %sp@(160),%sp@-
 214:	2f2f 00a0      	movel %sp@(160),%sp@-
 218:	2f2f 00a0      	movel %sp@(160),%sp@-
 21c:	2f2f 00ac      	movel %sp@(172),%sp@-
 220:	2f2f 00ac      	movel %sp@(172),%sp@-
 224:	2f2f 00ac      	movel %sp@(172),%sp@-
 228:	2042           	moveal %d2,%a0
 22a:	4e90           	jsr %a0@
 22c:	4fef 0018      	lea %sp@(24),%sp
 230:	4a80           	tstl %d0
 232:	6726           	beqs 25a <___mulxc3+0x21e>
 234:	2f2f 00b0      	movel %sp@(176),%sp@-
 238:	2f2f 00b0      	movel %sp@(176),%sp@-
 23c:	2f2f 00b0      	movel %sp@(176),%sp@-
 240:	2f2f 00bc      	movel %sp@(188),%sp@-
 244:	2f2f 00bc      	movel %sp@(188),%sp@-
 248:	2f2f 00bc      	movel %sp@(188),%sp@-
 24c:	2042           	moveal %d2,%a0
 24e:	4e90           	jsr %a0@
 250:	4fef 0018      	lea %sp@(24),%sp
 254:	4a80           	tstl %d0
 256:	6700 05ae      	beqw 806 <___mulxc3+0x7ca>
 25a:	2f2f 00bc      	movel %sp@(188),%sp@-
 25e:	2f2f 00bc      	movel %sp@(188),%sp@-
 262:	2f2f 00bc      	movel %sp@(188),%sp@-
 266:	2f2f 00c8      	movel %sp@(200),%sp@-
 26a:	2f2f 00c8      	movel %sp@(200),%sp@-
 26e:	2f2f 00c8      	movel %sp@(200),%sp@-
 272:	43ef 00b0      	lea %sp@(176),%a1
 276:	2046           	moveal %d6,%a0
 278:	4e90           	jsr %a0@
 27a:	4fef 0018      	lea %sp@(24),%sp
 27e:	2f2f 00a0      	movel %sp@(160),%sp@-
 282:	2f2f 00a0      	movel %sp@(160),%sp@-
 286:	2f2f 00a0      	movel %sp@(160),%sp@-
 28a:	2f2f 00ac      	movel %sp@(172),%sp@-
 28e:	2f2f 00ac      	movel %sp@(172),%sp@-
 292:	2f2f 00ac      	movel %sp@(172),%sp@-
 296:	2042           	moveal %d2,%a0
 298:	4e90           	jsr %a0@
 29a:	4fef 0018      	lea %sp@(24),%sp
 29e:	4a80           	tstl %d0
 2a0:	6726           	beqs 2c8 <___mulxc3+0x28c>
 2a2:	2f2f 00bc      	movel %sp@(188),%sp@-
 2a6:	2f2f 00bc      	movel %sp@(188),%sp@-
 2aa:	2f2f 00bc      	movel %sp@(188),%sp@-
 2ae:	2f2f 00c8      	movel %sp@(200),%sp@-
 2b2:	2f2f 00c8      	movel %sp@(200),%sp@-
 2b6:	2f2f 00c8      	movel %sp@(200),%sp@-
 2ba:	2042           	moveal %d2,%a0
 2bc:	4e90           	jsr %a0@
 2be:	4fef 0018      	lea %sp@(24),%sp
 2c2:	4a80           	tstl %d0
 2c4:	6700 086c      	beqw b32 <___mulxc3+0xaf6>
 2c8:	422f 005c      	clrb %sp@(92)
 2cc:	2f2f 00c8      	movel %sp@(200),%sp@-
 2d0:	2f2f 00c8      	movel %sp@(200),%sp@-
 2d4:	2f2f 00c8      	movel %sp@(200),%sp@-
 2d8:	2f2f 00d4      	movel %sp@(212),%sp@-
 2dc:	2f2f 00d4      	movel %sp@(212),%sp@-
 2e0:	2f2f 00d4      	movel %sp@(212),%sp@-
 2e4:	43ef 00b0      	lea %sp@(176),%a1
 2e8:	2046           	moveal %d6,%a0
 2ea:	4e90           	jsr %a0@
 2ec:	4fef 0018      	lea %sp@(24),%sp
 2f0:	2f2f 00a0      	movel %sp@(160),%sp@-
 2f4:	2f2f 00a0      	movel %sp@(160),%sp@-
 2f8:	2f2f 00a0      	movel %sp@(160),%sp@-
 2fc:	2f2f 00ac      	movel %sp@(172),%sp@-
 300:	2f2f 00ac      	movel %sp@(172),%sp@-
 304:	2f2f 00ac      	movel %sp@(172),%sp@-
 308:	2042           	moveal %d2,%a0
 30a:	4e90           	jsr %a0@
 30c:	4fef 0018      	lea %sp@(24),%sp
 310:	4a80           	tstl %d0
 312:	6726           	beqs 33a <___mulxc3+0x2fe>
 314:	2f2f 00c8      	movel %sp@(200),%sp@-
 318:	2f2f 00c8      	movel %sp@(200),%sp@-
 31c:	2f2f 00c8      	movel %sp@(200),%sp@-
 320:	2f2f 00d4      	movel %sp@(212),%sp@-
 324:	2f2f 00d4      	movel %sp@(212),%sp@-
 328:	2f2f 00d4      	movel %sp@(212),%sp@-
 32c:	2042           	moveal %d2,%a0
 32e:	4e90           	jsr %a0@
 330:	4fef 0018      	lea %sp@(24),%sp
 334:	4a80           	tstl %d0
 336:	6700 0634      	beqw 96c <___mulxc3+0x930>
 33a:	2f2f 00d4      	movel %sp@(212),%sp@-
 33e:	2f2f 00d4      	movel %sp@(212),%sp@-
 342:	2f2f 00d4      	movel %sp@(212),%sp@-
 346:	2f2f 00e0      	movel %sp@(224),%sp@-
 34a:	2f2f 00e0      	movel %sp@(224),%sp@-
 34e:	2f2f 00e0      	movel %sp@(224),%sp@-
 352:	43ef 00b0      	lea %sp@(176),%a1
 356:	2046           	moveal %d6,%a0
 358:	4e90           	jsr %a0@
 35a:	4fef 0018      	lea %sp@(24),%sp
 35e:	2f2f 00a0      	movel %sp@(160),%sp@-
 362:	2f2f 00a0      	movel %sp@(160),%sp@-
 366:	2f2f 00a0      	movel %sp@(160),%sp@-
 36a:	2f2f 00ac      	movel %sp@(172),%sp@-
 36e:	2f2f 00ac      	movel %sp@(172),%sp@-
 372:	2f2f 00ac      	movel %sp@(172),%sp@-
 376:	2042           	moveal %d2,%a0
 378:	4e90           	jsr %a0@
 37a:	4fef 0018      	lea %sp@(24),%sp
 37e:	4a80           	tstl %d0
 380:	6726           	beqs 3a8 <___mulxc3+0x36c>
 382:	2f2f 00d4      	movel %sp@(212),%sp@-
 386:	2f2f 00d4      	movel %sp@(212),%sp@-
 38a:	2f2f 00d4      	movel %sp@(212),%sp@-
 38e:	2f2f 00e0      	movel %sp@(224),%sp@-
 392:	2f2f 00e0      	movel %sp@(224),%sp@-
 396:	2f2f 00e0      	movel %sp@(224),%sp@-
 39a:	2042           	moveal %d2,%a0
 39c:	4e90           	jsr %a0@
 39e:	4fef 0018      	lea %sp@(24),%sp
 3a2:	4a80           	tstl %d0
 3a4:	6700 0742      	beqw ae8 <___mulxc3+0xaac>
 3a8:	4a2f 005c      	tstb %sp@(92)
 3ac:	6600 023a      	bnew 5e8 <___mulxc3+0x5ac>
 3b0:	2f2f 0034      	movel %sp@(52),%sp@-
 3b4:	2f2f 0034      	movel %sp@(52),%sp@-
 3b8:	2f2f 0034      	movel %sp@(52),%sp@-
 3bc:	2f2f 0040      	movel %sp@(64),%sp@-
 3c0:	2f2f 0040      	movel %sp@(64),%sp@-
 3c4:	2f2f 0040      	movel %sp@(64),%sp@-
 3c8:	43ef 00b0      	lea %sp@(176),%a1
 3cc:	2046           	moveal %d6,%a0
 3ce:	4e90           	jsr %a0@
 3d0:	4fef 0018      	lea %sp@(24),%sp
 3d4:	2f2f 00a0      	movel %sp@(160),%sp@-
 3d8:	2f2f 00a0      	movel %sp@(160),%sp@-
 3dc:	2f2f 00a0      	movel %sp@(160),%sp@-
 3e0:	2f2f 00ac      	movel %sp@(172),%sp@-
 3e4:	2f2f 00ac      	movel %sp@(172),%sp@-
 3e8:	2f2f 00ac      	movel %sp@(172),%sp@-
 3ec:	2042           	moveal %d2,%a0
 3ee:	4e90           	jsr %a0@
 3f0:	4fef 0018      	lea %sp@(24),%sp
 3f4:	4a80           	tstl %d0
 3f6:	6726           	beqs 41e <___mulxc3+0x3e2>
 3f8:	2f2f 0034      	movel %sp@(52),%sp@-
 3fc:	2f2f 0034      	movel %sp@(52),%sp@-
 400:	2f2f 0034      	movel %sp@(52),%sp@-
 404:	2f2f 0040      	movel %sp@(64),%sp@-
 408:	2f2f 0040      	movel %sp@(64),%sp@-
 40c:	2f2f 0040      	movel %sp@(64),%sp@-
 410:	2042           	moveal %d2,%a0
 412:	4e90           	jsr %a0@
 414:	4fef 0018      	lea %sp@(24),%sp
 418:	4a80           	tstl %d0
 41a:	6700 0134      	beqw 550 <___mulxc3+0x514>
 41e:	2f2f 0040      	movel %sp@(64),%sp@-
 422:	2f2f 0040      	movel %sp@(64),%sp@-
 426:	2f2f 0040      	movel %sp@(64),%sp@-
 42a:	2f2f 004c      	movel %sp@(76),%sp@-
 42e:	2f2f 004c      	movel %sp@(76),%sp@-
 432:	2f2f 004c      	movel %sp@(76),%sp@-
 436:	43ef 00b0      	lea %sp@(176),%a1
 43a:	2046           	moveal %d6,%a0
 43c:	4e90           	jsr %a0@
 43e:	4fef 0018      	lea %sp@(24),%sp
 442:	2f2f 00a0      	movel %sp@(160),%sp@-
 446:	2f2f 00a0      	movel %sp@(160),%sp@-
 44a:	2f2f 00a0      	movel %sp@(160),%sp@-
 44e:	2f2f 00ac      	movel %sp@(172),%sp@-
 452:	2f2f 00ac      	movel %sp@(172),%sp@-
 456:	2f2f 00ac      	movel %sp@(172),%sp@-
 45a:	2042           	moveal %d2,%a0
 45c:	4e90           	jsr %a0@
 45e:	4fef 0018      	lea %sp@(24),%sp
 462:	4a80           	tstl %d0
 464:	6726           	beqs 48c <___mulxc3+0x450>
 466:	2f2f 0040      	movel %sp@(64),%sp@-
 46a:	2f2f 0040      	movel %sp@(64),%sp@-
 46e:	2f2f 0040      	movel %sp@(64),%sp@-
 472:	2f2f 004c      	movel %sp@(76),%sp@-
 476:	2f2f 004c      	movel %sp@(76),%sp@-
 47a:	2f2f 004c      	movel %sp@(76),%sp@-
 47e:	2042           	moveal %d2,%a0
 480:	4e90           	jsr %a0@
 482:	4fef 0018      	lea %sp@(24),%sp
 486:	4a80           	tstl %d0
 488:	6700 00c6      	beqw 550 <___mulxc3+0x514>
 48c:	2f2f 004c      	movel %sp@(76),%sp@-
 490:	2f2f 004c      	movel %sp@(76),%sp@-
 494:	2f2f 004c      	movel %sp@(76),%sp@-
 498:	2f2f 0058      	movel %sp@(88),%sp@-
 49c:	2f2f 0058      	movel %sp@(88),%sp@-
 4a0:	2f2f 0058      	movel %sp@(88),%sp@-
 4a4:	43ef 00b0      	lea %sp@(176),%a1
 4a8:	2046           	moveal %d6,%a0
 4aa:	4e90           	jsr %a0@
 4ac:	4fef 0018      	lea %sp@(24),%sp
 4b0:	2f2f 00a0      	movel %sp@(160),%sp@-
 4b4:	2f2f 00a0      	movel %sp@(160),%sp@-
 4b8:	2f2f 00a0      	movel %sp@(160),%sp@-
 4bc:	2f2f 00ac      	movel %sp@(172),%sp@-
 4c0:	2f2f 00ac      	movel %sp@(172),%sp@-
 4c4:	2f2f 00ac      	movel %sp@(172),%sp@-
 4c8:	2042           	moveal %d2,%a0
 4ca:	4e90           	jsr %a0@
 4cc:	4fef 0018      	lea %sp@(24),%sp
 4d0:	4a80           	tstl %d0
 4d2:	6724           	beqs 4f8 <___mulxc3+0x4bc>
 4d4:	2f2f 004c      	movel %sp@(76),%sp@-
 4d8:	2f2f 004c      	movel %sp@(76),%sp@-
 4dc:	2f2f 004c      	movel %sp@(76),%sp@-
 4e0:	2f2f 0058      	movel %sp@(88),%sp@-
 4e4:	2f2f 0058      	movel %sp@(88),%sp@-
 4e8:	2f2f 0058      	movel %sp@(88),%sp@-
 4ec:	2042           	moveal %d2,%a0
 4ee:	4e90           	jsr %a0@
 4f0:	4fef 0018      	lea %sp@(24),%sp
 4f4:	4a80           	tstl %d0
 4f6:	6758           	beqs 550 <___mulxc3+0x514>
 4f8:	2f0e           	movel %fp,%sp@-
 4fa:	2f0d           	movel %a5,%sp@-
 4fc:	2f0c           	movel %a4,%sp@-
 4fe:	2f0e           	movel %fp,%sp@-
 500:	2f0d           	movel %a5,%sp@-
 502:	2f0c           	movel %a4,%sp@-
 504:	43ef 00b0      	lea %sp@(176),%a1
 508:	2046           	moveal %d6,%a0
 50a:	4e90           	jsr %a0@
 50c:	4fef 0018      	lea %sp@(24),%sp
 510:	2f2f 00a0      	movel %sp@(160),%sp@-
 514:	2f2f 00a0      	movel %sp@(160),%sp@-
 518:	2f2f 00a0      	movel %sp@(160),%sp@-
 51c:	2f2f 00ac      	movel %sp@(172),%sp@-
 520:	2f2f 00ac      	movel %sp@(172),%sp@-
 524:	2f2f 00ac      	movel %sp@(172),%sp@-
 528:	2042           	moveal %d2,%a0
 52a:	4e90           	jsr %a0@
 52c:	4fef 0018      	lea %sp@(24),%sp
 530:	4a80           	tstl %d0
 532:	6700 fc6c      	beqw 1a0 <___mulxc3+0x164>
 536:	2f0e           	movel %fp,%sp@-
 538:	2f0d           	movel %a5,%sp@-
 53a:	2f0c           	movel %a4,%sp@-
 53c:	2f0e           	movel %fp,%sp@-
 53e:	2f0d           	movel %a5,%sp@-
 540:	2f0c           	movel %a4,%sp@-
 542:	2042           	moveal %d2,%a0
 544:	4e90           	jsr %a0@
 546:	4fef 0018      	lea %sp@(24),%sp
 54a:	4a80           	tstl %d0
 54c:	6600 fc52      	bnew 1a0 <___mulxc3+0x164>
 550:	2f2f 00b0      	movel %sp@(176),%sp@-
 554:	2f2f 00b0      	movel %sp@(176),%sp@-
 558:	2f2f 00b0      	movel %sp@(176),%sp@-
 55c:	2f2f 00bc      	movel %sp@(188),%sp@-
 560:	2f2f 00bc      	movel %sp@(188),%sp@-
 564:	2f2f 00bc      	movel %sp@(188),%sp@-
 568:	2042           	moveal %d2,%a0
 56a:	4e90           	jsr %a0@
 56c:	4fef 0018      	lea %sp@(24),%sp
 570:	4a80           	tstl %d0
 572:	6600 0264      	bnew 7d8 <___mulxc3+0x79c>
 576:	2f2f 00bc      	movel %sp@(188),%sp@-
 57a:	2f2f 00bc      	movel %sp@(188),%sp@-
 57e:	2f2f 00bc      	movel %sp@(188),%sp@-
 582:	2f2f 00c8      	movel %sp@(200),%sp@-
 586:	2f2f 00c8      	movel %sp@(200),%sp@-
 58a:	2f2f 00c8      	movel %sp@(200),%sp@-
 58e:	2042           	moveal %d2,%a0
 590:	4e90           	jsr %a0@
 592:	4fef 0018      	lea %sp@(24),%sp
 596:	4a80           	tstl %d0
 598:	6600 0210      	bnew 7aa <___mulxc3+0x76e>
 59c:	2f2f 00c8      	movel %sp@(200),%sp@-
 5a0:	2f2f 00c8      	movel %sp@(200),%sp@-
 5a4:	2f2f 00c8      	movel %sp@(200),%sp@-
 5a8:	2f2f 00d4      	movel %sp@(212),%sp@-
 5ac:	2f2f 00d4      	movel %sp@(212),%sp@-
 5b0:	2f2f 00d4      	movel %sp@(212),%sp@-
 5b4:	2042           	moveal %d2,%a0
 5b6:	4e90           	jsr %a0@
 5b8:	4fef 0018      	lea %sp@(24),%sp
 5bc:	4a80           	tstl %d0
 5be:	6600 01bc      	bnew 77c <___mulxc3+0x740>
 5c2:	2f2f 00d4      	movel %sp@(212),%sp@-
 5c6:	2f2f 00d4      	movel %sp@(212),%sp@-
 5ca:	2f2f 00d4      	movel %sp@(212),%sp@-
 5ce:	2f2f 00e0      	movel %sp@(224),%sp@-
 5d2:	2f2f 00e0      	movel %sp@(224),%sp@-
 5d6:	2f2f 00e0      	movel %sp@(224),%sp@-
 5da:	2042           	moveal %d2,%a0
 5dc:	4e90           	jsr %a0@
 5de:	4fef 0018      	lea %sp@(24),%sp
 5e2:	4a80           	tstl %d0
 5e4:	6600 0168      	bnew 74e <___mulxc3+0x712>
 5e8:	2f2f 00c8      	movel %sp@(200),%sp@-
 5ec:	2f2f 00c8      	movel %sp@(200),%sp@-
 5f0:	2f2f 00c8      	movel %sp@(200),%sp@-
 5f4:	2f2f 00bc      	movel %sp@(188),%sp@-
 5f8:	2f2f 00bc      	movel %sp@(188),%sp@-
 5fc:	2f2f 00bc      	movel %sp@(188),%sp@-
 600:	43ef 00b0      	lea %sp@(176),%a1
 604:	4e92           	jsr %a2@
 606:	4fef 0018      	lea %sp@(24),%sp
 60a:	262f 0098      	movel %sp@(152),%d3
 60e:	282f 009c      	movel %sp@(156),%d4
 612:	2a2f 00a0      	movel %sp@(160),%d5
 616:	2f2f 00d4      	movel %sp@(212),%sp@-
 61a:	2f2f 00d4      	movel %sp@(212),%sp@-
 61e:	2f2f 00d4      	movel %sp@(212),%sp@-
 622:	2f2f 00c8      	movel %sp@(200),%sp@-
 626:	2f2f 00c8      	movel %sp@(200),%sp@-
 62a:	2f2f 00c8      	movel %sp@(200),%sp@-
 62e:	43ef 00a4      	lea %sp@(164),%a1
 632:	4e92           	jsr %a2@
 634:	4fef 0018      	lea %sp@(24),%sp
 638:	2f2f 0094      	movel %sp@(148),%sp@-
 63c:	2f2f 0094      	movel %sp@(148),%sp@-
 640:	2f2f 0094      	movel %sp@(148),%sp@-
 644:	2f05           	movel %d5,%sp@-
 646:	2f04           	movel %d4,%sp@-
 648:	2f03           	movel %d3,%sp@-
 64a:	43ef 0098      	lea %sp@(152),%a1
 64e:	2046           	moveal %d6,%a0
 650:	4e90           	jsr %a0@
 652:	4fef 0018      	lea %sp@(24),%sp
 656:	2f3a f9e0      	movel %pc@(38 <___mulxc3-0x4>),%sp@-
 65a:	2f3a f9d8      	movel %pc@(34 <___mulxc3-0x8>),%sp@-
 65e:	2f3a f9d0      	movel %pc@(30 <___mulxc3-0xc>),%sp@-
 662:	2f2f 0094      	movel %sp@(148),%sp@-
 666:	2f2f 0094      	movel %sp@(148),%sp@-
 66a:	2f2f 0094      	movel %sp@(148),%sp@-
 66e:	43ef 008c      	lea %sp@(140),%a1
 672:	4e92           	jsr %a2@
 674:	4fef 0018      	lea %sp@(24),%sp
 678:	262f 0074      	movel %sp@(116),%d3
 67c:	282f 0078      	movel %sp@(120),%d4
 680:	2a2f 007c      	movel %sp@(124),%d5
 684:	2f2f 00d4      	movel %sp@(212),%sp@-
 688:	2f2f 00d4      	movel %sp@(212),%sp@-
 68c:	2f2f 00d4      	movel %sp@(212),%sp@-
 690:	2f2f 00bc      	movel %sp@(188),%sp@-
 694:	2f2f 00bc      	movel %sp@(188),%sp@-
 698:	2f2f 00bc      	movel %sp@(188),%sp@-
 69c:	43ef 00b0      	lea %sp@(176),%a1
 6a0:	4e92           	jsr %a2@
 6a2:	4fef 0018      	lea %sp@(24),%sp
 6a6:	286f 0098      	moveal %sp@(152),%a4
 6aa:	2a6f 009c      	moveal %sp@(156),%a5
 6ae:	2c6f 00a0      	moveal %sp@(160),%fp
 6b2:	2f2f 00c8      	movel %sp@(200),%sp@-
 6b6:	2f2f 00c8      	movel %sp@(200),%sp@-
 6ba:	2f2f 00c8      	movel %sp@(200),%sp@-
 6be:	2f2f 00c8      	movel %sp@(200),%sp@-
 6c2:	2f2f 00c8      	movel %sp@(200),%sp@-
 6c6:	2f2f 00c8      	movel %sp@(200),%sp@-
 6ca:	43ef 00a4      	lea %sp@(164),%a1
 6ce:	4e92           	jsr %a2@
 6d0:	4fef 0018      	lea %sp@(24),%sp
 6d4:	2f2f 0094      	movel %sp@(148),%sp@-
 6d8:	2f2f 0094      	movel %sp@(148),%sp@-
 6dc:	2f2f 0094      	movel %sp@(148),%sp@-
 6e0:	2f0e           	movel %fp,%sp@-
 6e2:	2f0d           	movel %a5,%sp@-
 6e4:	2f0c           	movel %a4,%sp@-
 6e6:	43ef 0098      	lea %sp@(152),%a1
 6ea:	2047           	moveal %d7,%a0
 6ec:	4e90           	jsr %a0@
 6ee:	4fef 0018      	lea %sp@(24),%sp
 6f2:	2f3a f944      	movel %pc@(38 <___mulxc3-0x4>),%sp@-
 6f6:	2f3a f93c      	movel %pc@(34 <___mulxc3-0x8>),%sp@-
 6fa:	2f3a f934      	movel %pc@(30 <___mulxc3-0xc>),%sp@-
 6fe:	2f2f 0094      	movel %sp@(148),%sp@-
 702:	2f2f 0094      	movel %sp@(148),%sp@-
 706:	2f2f 0094      	movel %sp@(148),%sp@-
 70a:	43ef 008c      	lea %sp@(140),%a1
 70e:	4e92           	jsr %a2@
 710:	4fef 0018      	lea %sp@(24),%sp
 714:	2f6f 0074 0050 	movel %sp@(116),%sp@(80)
 71a:	2f6f 0078 0054 	movel %sp@(120),%sp@(84)
 720:	2f6f 007c 0058 	movel %sp@(124),%sp@(88)
 726:	2683           	movel %d3,%a3@
 728:	2744 0004      	movel %d4,%a3@(4)
 72c:	2745 0008      	movel %d5,%a3@(8)
 730:	276f 0050 000c 	movel %sp@(80),%a3@(12)
 736:	276f 0054 0010 	movel %sp@(84),%a3@(16)
 73c:	276f 0058 0014 	movel %sp@(88),%a3@(20)
 742:	200b           	movel %a3,%d0
 744:	4cdf 7cfc      	moveml %sp@+,%d2-%d7/%a2-%fp
 748:	4fef 0078      	lea %sp@(120),%sp
 74c:	4e75           	rts
 74e:	203a f8bc      	movel %pc@(c <___mulxc3-0x30>),%d0
 752:	223a f8bc      	movel %pc@(10 <___mulxc3-0x2c>),%d1
 756:	243a f8bc      	movel %pc@(14 <___mulxc3-0x28>),%d2
 75a:	262f 00cc      	movel %sp@(204),%d3
 75e:	6c0c           	bges 76c <___mulxc3+0x730>
 760:	203a f8c2      	movel %pc@(24 <___mulxc3-0x18>),%d0
 764:	223a f8c2      	movel %pc@(28 <___mulxc3-0x14>),%d1
 768:	243a f8c2      	movel %pc@(2c <___mulxc3-0x10>),%d2
 76c:	2f40 00cc      	movel %d0,%sp@(204)
 770:	2f41 00d0      	movel %d1,%sp@(208)
 774:	2f42 00d4      	movel %d2,%sp@(212)
 778:	6000 fe6e      	braw 5e8 <___mulxc3+0x5ac>
 77c:	263a f88e      	movel %pc@(c <___mulxc3-0x30>),%d3
 780:	283a f88e      	movel %pc@(10 <___mulxc3-0x2c>),%d4
 784:	2a3a f88e      	movel %pc@(14 <___mulxc3-0x28>),%d5
 788:	202f 00c0      	movel %sp@(192),%d0
 78c:	6c0c           	bges 79a <___mulxc3+0x75e>
 78e:	263a f894      	movel %pc@(24 <___mulxc3-0x18>),%d3
 792:	283a f894      	movel %pc@(28 <___mulxc3-0x14>),%d4
 796:	2a3a f894      	movel %pc@(2c <___mulxc3-0x10>),%d5
 79a:	2f43 00c0      	movel %d3,%sp@(192)
 79e:	2f44 00c4      	movel %d4,%sp@(196)
 7a2:	2f45 00c8      	movel %d5,%sp@(200)
 7a6:	6000 fe1a      	braw 5c2 <___mulxc3+0x586>
 7aa:	263a f860      	movel %pc@(c <___mulxc3-0x30>),%d3
 7ae:	283a f860      	movel %pc@(10 <___mulxc3-0x2c>),%d4
 7b2:	2a3a f860      	movel %pc@(14 <___mulxc3-0x28>),%d5
 7b6:	202f 00b4      	movel %sp@(180),%d0
 7ba:	6c0c           	bges 7c8 <___mulxc3+0x78c>
 7bc:	263a f866      	movel %pc@(24 <___mulxc3-0x18>),%d3
 7c0:	283a f866      	movel %pc@(28 <___mulxc3-0x14>),%d4
 7c4:	2a3a f866      	movel %pc@(2c <___mulxc3-0x10>),%d5
 7c8:	2f43 00b4      	movel %d3,%sp@(180)
 7cc:	2f44 00b8      	movel %d4,%sp@(184)
 7d0:	2f45 00bc      	movel %d5,%sp@(188)
 7d4:	6000 fdc6      	braw 59c <___mulxc3+0x560>
 7d8:	263a f832      	movel %pc@(c <___mulxc3-0x30>),%d3
 7dc:	283a f832      	movel %pc@(10 <___mulxc3-0x2c>),%d4
 7e0:	2a3a f832      	movel %pc@(14 <___mulxc3-0x28>),%d5
 7e4:	202f 00a8      	movel %sp@(168),%d0
 7e8:	6c0c           	bges 7f6 <___mulxc3+0x7ba>
 7ea:	263a f838      	movel %pc@(24 <___mulxc3-0x18>),%d3
 7ee:	283a f838      	movel %pc@(28 <___mulxc3-0x14>),%d4
 7f2:	2a3a f838      	movel %pc@(2c <___mulxc3-0x10>),%d5
 7f6:	2f43 00a8      	movel %d3,%sp@(168)
 7fa:	2f44 00ac      	movel %d4,%sp@(172)
 7fe:	2f45 00b0      	movel %d5,%sp@(176)
 802:	6000 fd72      	braw 576 <___mulxc3+0x53a>
 806:	2f7a f7f8 005c 	movel %pc@(0 <___mulxc3-0x3c>),%sp@(92)
 80c:	2f7a f7f6 0060 	movel %pc@(4 <___mulxc3-0x38>),%sp@(96)
 812:	2f7a f7f4 0064 	movel %pc@(8 <___mulxc3-0x34>),%sp@(100)
 818:	2f6f 005c 0068 	movel %sp@(92),%sp@(104)
 81e:	2f6f 0060 006c 	movel %sp@(96),%sp@(108)
 824:	2f6f 0064 0070 	movel %sp@(100),%sp@(112)
 82a:	202f 00a8      	movel %sp@(168),%d0
 82e:	6c12           	bges 842 <___mulxc3+0x806>
 830:	2f7a f7e6 0068 	movel %pc@(18 <___mulxc3-0x24>),%sp@(104)
 836:	2f7a f7e4 006c 	movel %pc@(1c <___mulxc3-0x20>),%sp@(108)
 83c:	2f7a f7e2 0070 	movel %pc@(20 <___mulxc3-0x1c>),%sp@(112)
 842:	2f6f 0068 00a8 	movel %sp@(104),%sp@(168)
 848:	2f6f 006c 00ac 	movel %sp@(108),%sp@(172)
 84e:	2f6f 0070 00b0 	movel %sp@(112),%sp@(176)
 854:	2f2f 00bc      	movel %sp@(188),%sp@-
 858:	2f2f 00bc      	movel %sp@(188),%sp@-
 85c:	2f2f 00bc      	movel %sp@(188),%sp@-
 860:	2f2f 00c8      	movel %sp@(200),%sp@-
 864:	2f2f 00c8      	movel %sp@(200),%sp@-
 868:	2f2f 00c8      	movel %sp@(200),%sp@-
 86c:	43ef 00b0      	lea %sp@(176),%a1
 870:	2046           	moveal %d6,%a0
 872:	4e90           	jsr %a0@
 874:	4fef 0018      	lea %sp@(24),%sp
 878:	2f2f 00a0      	movel %sp@(160),%sp@-
 87c:	2f2f 00a0      	movel %sp@(160),%sp@-
 880:	2f2f 00a0      	movel %sp@(160),%sp@-
 884:	2f2f 00ac      	movel %sp@(172),%sp@-
 888:	2f2f 00ac      	movel %sp@(172),%sp@-
 88c:	2f2f 00ac      	movel %sp@(172),%sp@-
 890:	2042           	moveal %d2,%a0
 892:	4e90           	jsr %a0@
 894:	4fef 0018      	lea %sp@(24),%sp
 898:	4a80           	tstl %d0
 89a:	6726           	beqs 8c2 <___mulxc3+0x886>
 89c:	2f2f 00bc      	movel %sp@(188),%sp@-
 8a0:	2f2f 00bc      	movel %sp@(188),%sp@-
 8a4:	2f2f 00bc      	movel %sp@(188),%sp@-
 8a8:	2f2f 00c8      	movel %sp@(200),%sp@-
 8ac:	2f2f 00c8      	movel %sp@(200),%sp@-
 8b0:	2f2f 00c8      	movel %sp@(200),%sp@-
 8b4:	2042           	moveal %d2,%a0
 8b6:	4e90           	jsr %a0@
 8b8:	4fef 0018      	lea %sp@(24),%sp
 8bc:	4a80           	tstl %d0
 8be:	6700 02c4      	beqw b84 <___mulxc3+0xb48>
 8c2:	2f7a f748 0068 	movel %pc@(c <___mulxc3-0x30>),%sp@(104)
 8c8:	2f7a f746 006c 	movel %pc@(10 <___mulxc3-0x2c>),%sp@(108)
 8ce:	2f7a f744 0070 	movel %pc@(14 <___mulxc3-0x28>),%sp@(112)
 8d4:	202f 0068      	movel %sp@(104),%d0
 8d8:	0880 001f      	bclr #31,%d0
 8dc:	2f40 005c      	movel %d0,%sp@(92)
 8e0:	206f 006c      	moveal %sp@(108),%a0
 8e4:	2f48 0060      	movel %a0,%sp@(96)
 8e8:	202f 0070      	movel %sp@(112),%d0
 8ec:	2f40 0064      	movel %d0,%sp@(100)
 8f0:	202f 00b4      	movel %sp@(180),%d0
 8f4:	6c0e           	bges 904 <___mulxc3+0x8c8>
 8f6:	202f 005c      	movel %sp@(92),%d0
 8fa:	0680 8000 0000 	addil #-2147483648,%d0
 900:	2f40 005c      	movel %d0,%sp@(92)
 904:	2f6f 005c 00b4 	movel %sp@(92),%sp@(180)
 90a:	2f6f 0060 00b8 	movel %sp@(96),%sp@(184)
 910:	2f6f 0064 00bc 	movel %sp@(100),%sp@(188)
 916:	2f2f 00c8      	movel %sp@(200),%sp@-
 91a:	2f2f 00c8      	movel %sp@(200),%sp@-
 91e:	2f2f 00c8      	movel %sp@(200),%sp@-
 922:	2f2f 00d4      	movel %sp@(212),%sp@-
 926:	2f2f 00d4      	movel %sp@(212),%sp@-
 92a:	2f2f 00d4      	movel %sp@(212),%sp@-
 92e:	2042           	moveal %d2,%a0
 930:	4e90           	jsr %a0@
 932:	4fef 0018      	lea %sp@(24),%sp
 936:	4a80           	tstl %d0
 938:	6600 02a6      	bnew be0 <___mulxc3+0xba4>
 93c:	2f2f 00d4      	movel %sp@(212),%sp@-
 940:	2f2f 00d4      	movel %sp@(212),%sp@-
 944:	2f2f 00d4      	movel %sp@(212),%sp@-
 948:	2f2f 00e0      	movel %sp@(224),%sp@-
 94c:	2f2f 00e0      	movel %sp@(224),%sp@-
 950:	2f2f 00e0      	movel %sp@(224),%sp@-
 954:	2042           	moveal %d2,%a0
 956:	4e90           	jsr %a0@
 958:	4fef 0018      	lea %sp@(24),%sp
 95c:	4a80           	tstl %d0
 95e:	6600 023a      	bnew b9a <___mulxc3+0xb5e>
 962:	1f7c 0001 005c 	moveb #1,%sp@(92)
 968:	6000 f962      	braw 2cc <___mulxc3+0x290>
 96c:	2f7a f692 005c 	movel %pc@(0 <___mulxc3-0x3c>),%sp@(92)
 972:	2f7a f690 0060 	movel %pc@(4 <___mulxc3-0x38>),%sp@(96)
 978:	2f7a f68e 0064 	movel %pc@(8 <___mulxc3-0x34>),%sp@(100)
 97e:	262f 005c      	movel %sp@(92),%d3
 982:	282f 0060      	movel %sp@(96),%d4
 986:	2a2f 0064      	movel %sp@(100),%d5
 98a:	202f 00c0      	movel %sp@(192),%d0
 98e:	6c0c           	bges 99c <___mulxc3+0x960>
 990:	263a f686      	movel %pc@(18 <___mulxc3-0x24>),%d3
 994:	283a f686      	movel %pc@(1c <___mulxc3-0x20>),%d4
 998:	2a3a f686      	movel %pc@(20 <___mulxc3-0x1c>),%d5
 99c:	2f43 00c0      	movel %d3,%sp@(192)
 9a0:	2f44 00c4      	movel %d4,%sp@(196)
 9a4:	2f45 00c8      	movel %d5,%sp@(200)
 9a8:	2f2f 00d4      	movel %sp@(212),%sp@-
 9ac:	2f2f 00d4      	movel %sp@(212),%sp@-
 9b0:	2f2f 00d4      	movel %sp@(212),%sp@-
 9b4:	2f2f 00e0      	movel %sp@(224),%sp@-
 9b8:	2f2f 00e0      	movel %sp@(224),%sp@-
 9bc:	2f2f 00e0      	movel %sp@(224),%sp@-
 9c0:	43ef 00b0      	lea %sp@(176),%a1
 9c4:	2046           	moveal %d6,%a0
 9c6:	4e90           	jsr %a0@
 9c8:	4fef 0018      	lea %sp@(24),%sp
 9cc:	262f 0098      	movel %sp@(152),%d3
 9d0:	282f 009c      	movel %sp@(156),%d4
 9d4:	2a2f 00a0      	movel %sp@(160),%d5
 9d8:	2f05           	movel %d5,%sp@-
 9da:	2f04           	movel %d4,%sp@-
 9dc:	2f03           	movel %d3,%sp@-
 9de:	2f05           	movel %d5,%sp@-
 9e0:	2f04           	movel %d4,%sp@-
 9e2:	2f03           	movel %d3,%sp@-
 9e4:	2042           	moveal %d2,%a0
 9e6:	4e90           	jsr %a0@
 9e8:	4fef 0018      	lea %sp@(24),%sp
 9ec:	4a80           	tstl %d0
 9ee:	6726           	beqs a16 <___mulxc3+0x9da>
 9f0:	2f2f 00d4      	movel %sp@(212),%sp@-
 9f4:	2f2f 00d4      	movel %sp@(212),%sp@-
 9f8:	2f2f 00d4      	movel %sp@(212),%sp@-
 9fc:	2f2f 00e0      	movel %sp@(224),%sp@-
 a00:	2f2f 00e0      	movel %sp@(224),%sp@-
 a04:	2f2f 00e0      	movel %sp@(224),%sp@-
 a08:	2042           	moveal %d2,%a0
 a0a:	4e90           	jsr %a0@
 a0c:	4fef 0018      	lea %sp@(24),%sp
 a10:	4a80           	tstl %d0
 a12:	6700 010e      	beqw b22 <___mulxc3+0xae6>
 a16:	287a f5f4      	moveal %pc@(c <___mulxc3-0x30>),%a4
 a1a:	2a7a f5f4      	moveal %pc@(10 <___mulxc3-0x2c>),%a5
 a1e:	2c7a f5f4      	moveal %pc@(14 <___mulxc3-0x28>),%fp
 a22:	260c           	movel %a4,%d3
 a24:	0883 001f      	bclr #31,%d3
 a28:	280d           	movel %a5,%d4
 a2a:	2a0e           	movel %fp,%d5
 a2c:	202f 00cc      	movel %sp@(204),%d0
 a30:	6c06           	bges a38 <___mulxc3+0x9fc>
 a32:	0683 8000 0000 	addil #-2147483648,%d3
 a38:	2f43 00cc      	movel %d3,%sp@(204)
 a3c:	2f44 00d0      	movel %d4,%sp@(208)
 a40:	2f45 00d4      	movel %d5,%sp@(212)
 a44:	2f2f 00b0      	movel %sp@(176),%sp@-
 a48:	2f2f 00b0      	movel %sp@(176),%sp@-
 a4c:	2f2f 00b0      	movel %sp@(176),%sp@-
 a50:	2f2f 00bc      	movel %sp@(188),%sp@-
 a54:	2f2f 00bc      	movel %sp@(188),%sp@-
 a58:	2f2f 00bc      	movel %sp@(188),%sp@-
 a5c:	2042           	moveal %d2,%a0
 a5e:	4e90           	jsr %a0@
 a60:	4fef 0018      	lea %sp@(24),%sp
 a64:	4a80           	tstl %d0
 a66:	6654           	bnes abc <___mulxc3+0xa80>
 a68:	2f2f 00bc      	movel %sp@(188),%sp@-
 a6c:	2f2f 00bc      	movel %sp@(188),%sp@-
 a70:	2f2f 00bc      	movel %sp@(188),%sp@-
 a74:	2f2f 00c8      	movel %sp@(200),%sp@-
 a78:	2f2f 00c8      	movel %sp@(200),%sp@-
 a7c:	2f2f 00c8      	movel %sp@(200),%sp@-
 a80:	2042           	moveal %d2,%a0
 a82:	4e90           	jsr %a0@
 a84:	4fef 0018      	lea %sp@(24),%sp
 a88:	4a80           	tstl %d0
 a8a:	6700 fb5c      	beqw 5e8 <___mulxc3+0x5ac>
 a8e:	203a f57c      	movel %pc@(c <___mulxc3-0x30>),%d0
 a92:	223a f57c      	movel %pc@(10 <___mulxc3-0x2c>),%d1
 a96:	243a f57c      	movel %pc@(14 <___mulxc3-0x28>),%d2
 a9a:	262f 00b4      	movel %sp@(180),%d3
 a9e:	6c0c           	bges aac <___mulxc3+0xa70>
 aa0:	203a f582      	movel %pc@(24 <___mulxc3-0x18>),%d0
 aa4:	223a f582      	movel %pc@(28 <___mulxc3-0x14>),%d1
 aa8:	243a f582      	movel %pc@(2c <___mulxc3-0x10>),%d2
 aac:	2f40 00b4      	movel %d0,%sp@(180)
 ab0:	2f41 00b8      	movel %d1,%sp@(184)
 ab4:	2f42 00bc      	movel %d2,%sp@(188)
 ab8:	6000 fb2e      	braw 5e8 <___mulxc3+0x5ac>
 abc:	263a f54e      	movel %pc@(c <___mulxc3-0x30>),%d3
 ac0:	283a f54e      	movel %pc@(10 <___mulxc3-0x2c>),%d4
 ac4:	2a3a f54e      	movel %pc@(14 <___mulxc3-0x28>),%d5
 ac8:	202f 00a8      	movel %sp@(168),%d0
 acc:	6c0c           	bges ada <___mulxc3+0xa9e>
 ace:	263a f554      	movel %pc@(24 <___mulxc3-0x18>),%d3
 ad2:	283a f554      	movel %pc@(28 <___mulxc3-0x14>),%d4
 ad6:	2a3a f554      	movel %pc@(2c <___mulxc3-0x10>),%d5
 ada:	2f43 00a8      	movel %d3,%sp@(168)
 ade:	2f44 00ac      	movel %d4,%sp@(172)
 ae2:	2f45 00b0      	movel %d5,%sp@(176)
 ae6:	6080           	bras a68 <___mulxc3+0xa2c>
 ae8:	263a f522      	movel %pc@(c <___mulxc3-0x30>),%d3
 aec:	283a f522      	movel %pc@(10 <___mulxc3-0x2c>),%d4
 af0:	2a3a f522      	movel %pc@(14 <___mulxc3-0x28>),%d5
 af4:	202f 00c0      	movel %sp@(192),%d0
 af8:	6c0c           	bges b06 <___mulxc3+0xaca>
 afa:	263a f528      	movel %pc@(24 <___mulxc3-0x18>),%d3
 afe:	283a f528      	movel %pc@(28 <___mulxc3-0x14>),%d4
 b02:	2a3a f528      	movel %pc@(2c <___mulxc3-0x10>),%d5
 b06:	2f43 00c0      	movel %d3,%sp@(192)
 b0a:	2f44 00c4      	movel %d4,%sp@(196)
 b0e:	2f45 00c8      	movel %d5,%sp@(200)
 b12:	287a f4ec      	moveal %pc@(0 <___mulxc3-0x3c>),%a4
 b16:	2a7a f4ec      	moveal %pc@(4 <___mulxc3-0x38>),%a5
 b1a:	2c7a f4ec      	moveal %pc@(8 <___mulxc3-0x34>),%fp
 b1e:	6000 ff02      	braw a22 <___mulxc3+0x9e6>
 b22:	286f 005c      	moveal %sp@(92),%a4
 b26:	2a6f 0060      	moveal %sp@(96),%a5
 b2a:	2c6f 0064      	moveal %sp@(100),%fp
 b2e:	6000 fef2      	braw a22 <___mulxc3+0x9e6>
 b32:	2f7a f4d8 005c 	movel %pc@(c <___mulxc3-0x30>),%sp@(92)
 b38:	2f7a f4d6 0060 	movel %pc@(10 <___mulxc3-0x2c>),%sp@(96)
 b3e:	2f7a f4d4 0064 	movel %pc@(14 <___mulxc3-0x28>),%sp@(100)
 b44:	202f 00a8      	movel %sp@(168),%d0
 b48:	6c12           	bges b5c <___mulxc3+0xb20>
 b4a:	2f7a f4d8 005c 	movel %pc@(24 <___mulxc3-0x18>),%sp@(92)
 b50:	2f7a f4d6 0060 	movel %pc@(28 <___mulxc3-0x14>),%sp@(96)
 b56:	2f7a f4d4 0064 	movel %pc@(2c <___mulxc3-0x10>),%sp@(100)
 b5c:	2f6f 005c 00a8 	movel %sp@(92),%sp@(168)
 b62:	2f6f 0060 00ac 	movel %sp@(96),%sp@(172)
 b68:	2f6f 0064 00b0 	movel %sp@(100),%sp@(176)
 b6e:	2f7a f490 0068 	movel %pc@(0 <___mulxc3-0x3c>),%sp@(104)
 b74:	2f7a f48e 006c 	movel %pc@(4 <___mulxc3-0x38>),%sp@(108)
 b7a:	2f7a f48c 0070 	movel %pc@(8 <___mulxc3-0x34>),%sp@(112)
 b80:	6000 fd52      	braw 8d4 <___mulxc3+0x898>
 b84:	2f6f 005c 0068 	movel %sp@(92),%sp@(104)
 b8a:	2f6f 0060 006c 	movel %sp@(96),%sp@(108)
 b90:	2f6f 0064 0070 	movel %sp@(100),%sp@(112)
 b96:	6000 fd3c      	braw 8d4 <___mulxc3+0x898>
 b9a:	2f7a f470 005c 	movel %pc@(c <___mulxc3-0x30>),%sp@(92)
 ba0:	2f7a f46e 0060 	movel %pc@(10 <___mulxc3-0x2c>),%sp@(96)
 ba6:	2f7a f46c 0064 	movel %pc@(14 <___mulxc3-0x28>),%sp@(100)
 bac:	202f 00cc      	movel %sp@(204),%d0
 bb0:	6c12           	bges bc4 <___mulxc3+0xb88>
 bb2:	2f7a f470 005c 	movel %pc@(24 <___mulxc3-0x18>),%sp@(92)
 bb8:	2f7a f46e 0060 	movel %pc@(28 <___mulxc3-0x14>),%sp@(96)
 bbe:	2f7a f46c 0064 	movel %pc@(2c <___mulxc3-0x10>),%sp@(100)
 bc4:	2f6f 005c 00cc 	movel %sp@(92),%sp@(204)
 bca:	2f6f 0060 00d0 	movel %sp@(96),%sp@(208)
 bd0:	2f6f 0064 00d4 	movel %sp@(100),%sp@(212)
 bd6:	1f7c 0001 005c 	moveb #1,%sp@(92)
 bdc:	6000 f6ee      	braw 2cc <___mulxc3+0x290>
 be0:	2f7a f42a 005c 	movel %pc@(c <___mulxc3-0x30>),%sp@(92)
 be6:	2f7a f428 0060 	movel %pc@(10 <___mulxc3-0x2c>),%sp@(96)
 bec:	2f7a f426 0064 	movel %pc@(14 <___mulxc3-0x28>),%sp@(100)
 bf2:	202f 00c0      	movel %sp@(192),%d0
 bf6:	6c12           	bges c0a <___mulxc3+0xbce>
 bf8:	2f7a f42a 005c 	movel %pc@(24 <___mulxc3-0x18>),%sp@(92)
 bfe:	2f7a f428 0060 	movel %pc@(28 <___mulxc3-0x14>),%sp@(96)
 c04:	2f7a f426 0064 	movel %pc@(2c <___mulxc3-0x10>),%sp@(100)
 c0a:	2f6f 005c 00c0 	movel %sp@(92),%sp@(192)
 c10:	2f6f 0060 00c4 	movel %sp@(96),%sp@(196)
 c16:	2f6f 0064 00c8 	movel %sp@(100),%sp@(200)
 c1c:	6000 fd1e      	braw 93c <___mulxc3+0x900>

_multc3.o:     file format a.out-zero-big


_divsc3.o:     file format a.out-zero-big


Disassembly of section .text:

00000000 <___divsc3>:
   0:	598f           	subql #4,%sp
   2:	48e7 3f3e      	moveml %d2-%d7/%a2-%fp,%sp@-
   6:	2e2f 0034      	movel %sp@(52),%d7
   a:	2c2f 0038      	movel %sp@(56),%d6
   e:	2a2f 003c      	movel %sp@(60),%d5
  12:	282f 0040      	movel %sp@(64),%d4
  16:	2005           	movel %d5,%d0
  18:	0880 001f      	bclr #31,%d0
  1c:	2204           	movel %d4,%d1
  1e:	0881 001f      	bclr #31,%d1
  22:	2f01           	movel %d1,%sp@-
  24:	2f00           	movel %d0,%sp@-
  26:	4eb9 0000 0000 	jsr 0 <___divsc3>
  2c:	508f           	addql #8,%sp
  2e:	49f9 0000 0000 	lea 0 <___divsc3>,%a4
  34:	4a80           	tstl %d0
  36:	6c00 0084      	bgew bc <___divsc3+0xbc>
  3a:	2f04           	movel %d4,%sp@-
  3c:	2f05           	movel %d5,%sp@-
  3e:	4e94           	jsr %a4@
  40:	508f           	addql #8,%sp
  42:	2600           	movel %d0,%d3
  44:	45f9 0000 0000 	lea 0 <___divsc3>,%a2
  4a:	2f00           	movel %d0,%sp@-
  4c:	2f05           	movel %d5,%sp@-
  4e:	4e92           	jsr %a2@
  50:	508f           	addql #8,%sp
  52:	47f9 0000 0000 	lea 0 <___divsc3>,%a3
  58:	2f04           	movel %d4,%sp@-
  5a:	2f00           	movel %d0,%sp@-
  5c:	4e93           	jsr %a3@
  5e:	508f           	addql #8,%sp
  60:	2c40           	moveal %d0,%fp
  62:	2f03           	movel %d3,%sp@-
  64:	2f07           	movel %d7,%sp@-
  66:	4e92           	jsr %a2@
  68:	588f           	addql #4,%sp
  6a:	2e86           	movel %d6,%sp@
  6c:	2f00           	movel %d0,%sp@-
  6e:	4e93           	jsr %a3@
  70:	588f           	addql #4,%sp
  72:	2e8e           	movel %fp,%sp@
  74:	2f00           	movel %d0,%sp@-
  76:	4e94           	jsr %a4@
  78:	508f           	addql #8,%sp
  7a:	2400           	movel %d0,%d2
  7c:	2f03           	movel %d3,%sp@-
  7e:	2f06           	movel %d6,%sp@-
  80:	4e92           	jsr %a2@
  82:	508f           	addql #8,%sp
  84:	4bf9 0000 0000 	lea 0 <___divsc3>,%a5
  8a:	2f07           	movel %d7,%sp@-
  8c:	2f00           	movel %d0,%sp@-
  8e:	4e95           	jsr %a5@
  90:	588f           	addql #4,%sp
  92:	2e8e           	movel %fp,%sp@
  94:	2f00           	movel %d0,%sp@-
  96:	4e94           	jsr %a4@
  98:	508f           	addql #8,%sp
  9a:	2600           	movel %d0,%d3
  9c:	49f9 0000 0000 	lea 0 <___divsc3>,%a4
  a2:	2f02           	movel %d2,%sp@-
  a4:	2f02           	movel %d2,%sp@-
  a6:	4e94           	jsr %a4@
  a8:	508f           	addql #8,%sp
  aa:	4a80           	tstl %d0
  ac:	6600 0082      	bnew 130 <___divsc3+0x130>
  b0:	2002           	movel %d2,%d0
  b2:	2203           	movel %d3,%d1
  b4:	4cdf 7cfc      	moveml %sp@+,%d2-%d7/%a2-%fp
  b8:	588f           	addql #4,%sp
  ba:	4e75           	rts
  bc:	2f05           	movel %d5,%sp@-
  be:	2f04           	movel %d4,%sp@-
  c0:	4e94           	jsr %a4@
  c2:	508f           	addql #8,%sp
  c4:	2600           	movel %d0,%d3
  c6:	45f9 0000 0000 	lea 0 <___divsc3>,%a2
  cc:	2f00           	movel %d0,%sp@-
  ce:	2f04           	movel %d4,%sp@-
  d0:	4e92           	jsr %a2@
  d2:	508f           	addql #8,%sp
  d4:	47f9 0000 0000 	lea 0 <___divsc3>,%a3
  da:	2f05           	movel %d5,%sp@-
  dc:	2f00           	movel %d0,%sp@-
  de:	4e93           	jsr %a3@
  e0:	508f           	addql #8,%sp
  e2:	2c40           	moveal %d0,%fp
  e4:	2f03           	movel %d3,%sp@-
  e6:	2f06           	movel %d6,%sp@-
  e8:	4e92           	jsr %a2@
  ea:	588f           	addql #4,%sp
  ec:	2e87           	movel %d7,%sp@
  ee:	2f00           	movel %d0,%sp@-
  f0:	4e93           	jsr %a3@
  f2:	588f           	addql #4,%sp
  f4:	2e8e           	movel %fp,%sp@
  f6:	2f00           	movel %d0,%sp@-
  f8:	4e94           	jsr %a4@
  fa:	508f           	addql #8,%sp
  fc:	2400           	movel %d0,%d2
  fe:	2f03           	movel %d3,%sp@-
 100:	2f07           	movel %d7,%sp@-
 102:	4e92           	jsr %a2@
 104:	508f           	addql #8,%sp
 106:	4bf9 0000 0000 	lea 0 <___divsc3>,%a5
 10c:	2f00           	movel %d0,%sp@-
 10e:	2f06           	movel %d6,%sp@-
 110:	4e95           	jsr %a5@
 112:	588f           	addql #4,%sp
 114:	2e8e           	movel %fp,%sp@
 116:	2f00           	movel %d0,%sp@-
 118:	4e94           	jsr %a4@
 11a:	508f           	addql #8,%sp
 11c:	2600           	movel %d0,%d3
 11e:	49f9 0000 0000 	lea 0 <___divsc3>,%a4
 124:	2f02           	movel %d2,%sp@-
 126:	2f02           	movel %d2,%sp@-
 128:	4e94           	jsr %a4@
 12a:	508f           	addql #8,%sp
 12c:	4a80           	tstl %d0
 12e:	6780           	beqs b0 <___divsc3+0xb0>
 130:	2f03           	movel %d3,%sp@-
 132:	2f03           	movel %d3,%sp@-
 134:	4e94           	jsr %a4@
 136:	508f           	addql #8,%sp
 138:	4a80           	tstl %d0
 13a:	6700 ff74      	beqw b0 <___divsc3+0xb0>
 13e:	4df9 0000 0000 	lea 0 <___divsc3>,%fp
 144:	42a7           	clrl %sp@-
 146:	2f05           	movel %d5,%sp@-
 148:	4e96           	jsr %fp@
 14a:	508f           	addql #8,%sp
 14c:	4a80           	tstl %d0
 14e:	6656           	bnes 1a6 <___divsc3+0x1a6>
 150:	42a7           	clrl %sp@-
 152:	2f04           	movel %d4,%sp@-
 154:	4e96           	jsr %fp@
 156:	508f           	addql #8,%sp
 158:	4a80           	tstl %d0
 15a:	664a           	bnes 1a6 <___divsc3+0x1a6>
 15c:	2f07           	movel %d7,%sp@-
 15e:	2f07           	movel %d7,%sp@-
 160:	4e94           	jsr %a4@
 162:	508f           	addql #8,%sp
 164:	4a80           	tstl %d0
 166:	670e           	beqs 176 <___divsc3+0x176>
 168:	2f06           	movel %d6,%sp@-
 16a:	2f06           	movel %d6,%sp@-
 16c:	4e94           	jsr %a4@
 16e:	508f           	addql #8,%sp
 170:	4a80           	tstl %d0
 172:	6600 028c      	bnew 400 <___divsc3+0x400>
 176:	263c 7f80 0000 	movel #2139095040,%d3
 17c:	4a85           	tstl %d5
 17e:	6c06           	bges 186 <___divsc3+0x186>
 180:	263c ff80 0000 	movel #-8388608,%d3
 186:	2f07           	movel %d7,%sp@-
 188:	2f03           	movel %d3,%sp@-
 18a:	4e92           	jsr %a2@
 18c:	508f           	addql #8,%sp
 18e:	2400           	movel %d0,%d2
 190:	2f03           	movel %d3,%sp@-
 192:	2f06           	movel %d6,%sp@-
 194:	4e92           	jsr %a2@
 196:	508f           	addql #8,%sp
 198:	2600           	movel %d0,%d3
 19a:	2002           	movel %d2,%d0
 19c:	2203           	movel %d3,%d1
 19e:	4cdf 7cfc      	moveml %sp@+,%d2-%d7/%a2-%fp
 1a2:	588f           	addql #4,%sp
 1a4:	4e75           	rts
 1a6:	2f07           	movel %d7,%sp@-
 1a8:	2f07           	movel %d7,%sp@-
 1aa:	4e95           	jsr %a5@
 1ac:	508f           	addql #8,%sp
 1ae:	2f40 002c      	movel %d0,%sp@(44)
 1b2:	2f00           	movel %d0,%sp@-
 1b4:	2f00           	movel %d0,%sp@-
 1b6:	4e94           	jsr %a4@
 1b8:	508f           	addql #8,%sp
 1ba:	4a80           	tstl %d0
 1bc:	56c0           	sne %d0
 1be:	0200 0001      	andib #1,%d0
 1c2:	3c40           	moveaw %d0,%fp
 1c4:	2f07           	movel %d7,%sp@-
 1c6:	2f07           	movel %d7,%sp@-
 1c8:	4e94           	jsr %a4@
 1ca:	508f           	addql #8,%sp
 1cc:	4a80           	tstl %d0
 1ce:	57c0           	seq %d0
 1d0:	4400           	negb %d0
 1d2:	320e           	movew %fp,%d1
 1d4:	c200           	andb %d0,%d1
 1d6:	3c41           	moveaw %d1,%fp
 1d8:	6600 0144      	bnew 31e <___divsc3+0x31e>
 1dc:	2f06           	movel %d6,%sp@-
 1de:	2f06           	movel %d6,%sp@-
 1e0:	4e95           	jsr %a5@
 1e2:	588f           	addql #4,%sp
 1e4:	2e80           	movel %d0,%sp@
 1e6:	2f00           	movel %d0,%sp@-
 1e8:	4e94           	jsr %a4@
 1ea:	508f           	addql #8,%sp
 1ec:	4a80           	tstl %d0
 1ee:	670e           	beqs 1fe <___divsc3+0x1fe>
 1f0:	2f06           	movel %d6,%sp@-
 1f2:	2f06           	movel %d6,%sp@-
 1f4:	4e94           	jsr %a4@
 1f6:	508f           	addql #8,%sp
 1f8:	4a80           	tstl %d0
 1fa:	6700 0122      	beqw 31e <___divsc3+0x31e>
 1fe:	2f05           	movel %d5,%sp@-
 200:	2f05           	movel %d5,%sp@-
 202:	4e95           	jsr %a5@
 204:	588f           	addql #4,%sp
 206:	2e80           	movel %d0,%sp@
 208:	2f00           	movel %d0,%sp@-
 20a:	4e94           	jsr %a4@
 20c:	508f           	addql #8,%sp
 20e:	4a80           	tstl %d0
 210:	56c1           	sne %d1
 212:	0201 0001      	andib #1,%d1
 216:	3c41           	moveaw %d1,%fp
 218:	2f05           	movel %d5,%sp@-
 21a:	2f05           	movel %d5,%sp@-
 21c:	4e94           	jsr %a4@
 21e:	508f           	addql #8,%sp
 220:	4a80           	tstl %d0
 222:	57c0           	seq %d0
 224:	4400           	negb %d0
 226:	320e           	movew %fp,%d1
 228:	c200           	andb %d0,%d1
 22a:	3c41           	moveaw %d1,%fp
 22c:	6624           	bnes 252 <___divsc3+0x252>
 22e:	2f04           	movel %d4,%sp@-
 230:	2f04           	movel %d4,%sp@-
 232:	4e95           	jsr %a5@
 234:	588f           	addql #4,%sp
 236:	2e80           	movel %d0,%sp@
 238:	2f00           	movel %d0,%sp@-
 23a:	4e94           	jsr %a4@
 23c:	508f           	addql #8,%sp
 23e:	4a80           	tstl %d0
 240:	6700 fe6e      	beqw b0 <___divsc3+0xb0>
 244:	2f04           	movel %d4,%sp@-
 246:	2f04           	movel %d4,%sp@-
 248:	4e94           	jsr %a4@
 24a:	508f           	addql #8,%sp
 24c:	4a80           	tstl %d0
 24e:	6600 fe60      	bnew b0 <___divsc3+0xb0>
 252:	2f2f 002c      	movel %sp@(44),%sp@-
 256:	2f2f 0030      	movel %sp@(48),%sp@-
 25a:	4e94           	jsr %a4@
 25c:	508f           	addql #8,%sp
 25e:	4a80           	tstl %d0
 260:	6600 fe4e      	bnew b0 <___divsc3+0xb0>
 264:	2f06           	movel %d6,%sp@-
 266:	2f06           	movel %d6,%sp@-
 268:	4e95           	jsr %a5@
 26a:	588f           	addql #4,%sp
 26c:	2e80           	movel %d0,%sp@
 26e:	2f00           	movel %d0,%sp@-
 270:	4e94           	jsr %a4@
 272:	508f           	addql #8,%sp
 274:	4a80           	tstl %d0
 276:	6600 fe38      	bnew b0 <___divsc3+0xb0>
 27a:	300e           	movew %fp,%d0
 27c:	4a00           	tstb %d0
 27e:	6600 0190      	bnew 410 <___divsc3+0x410>
 282:	7000           	moveq #0,%d0
 284:	0880 001f      	bclr #31,%d0
 288:	2c40           	moveal %d0,%fp
 28a:	4a85           	tstl %d5
 28c:	6c0a           	bges 298 <___divsc3+0x298>
 28e:	2200           	movel %d0,%d1
 290:	0681 8000 0000 	addil #-2147483648,%d1
 296:	2c41           	moveal %d1,%fp
 298:	2f04           	movel %d4,%sp@-
 29a:	2f04           	movel %d4,%sp@-
 29c:	4e95           	jsr %a5@
 29e:	588f           	addql #4,%sp
 2a0:	2e80           	movel %d0,%sp@
 2a2:	2f00           	movel %d0,%sp@-
 2a4:	4e94           	jsr %a4@
 2a6:	508f           	addql #8,%sp
 2a8:	4a80           	tstl %d0
 2aa:	670e           	beqs 2ba <___divsc3+0x2ba>
 2ac:	2f04           	movel %d4,%sp@-
 2ae:	2f04           	movel %d4,%sp@-
 2b0:	4e94           	jsr %a4@
 2b2:	508f           	addql #8,%sp
 2b4:	4a80           	tstl %d0
 2b6:	6700 0162      	beqw 41a <___divsc3+0x41a>
 2ba:	7600           	moveq #0,%d3
 2bc:	0883 001f      	bclr #31,%d3
 2c0:	4a84           	tstl %d4
 2c2:	6c06           	bges 2ca <___divsc3+0x2ca>
 2c4:	0683 8000 0000 	addil #-2147483648,%d3
 2ca:	2f0e           	movel %fp,%sp@-
 2cc:	2f07           	movel %d7,%sp@-
 2ce:	4e92           	jsr %a2@
 2d0:	508f           	addql #8,%sp
 2d2:	2400           	movel %d0,%d2
 2d4:	2f03           	movel %d3,%sp@-
 2d6:	2f06           	movel %d6,%sp@-
 2d8:	4e92           	jsr %a2@
 2da:	588f           	addql #4,%sp
 2dc:	2e80           	movel %d0,%sp@
 2de:	2f02           	movel %d2,%sp@-
 2e0:	4e93           	jsr %a3@
 2e2:	588f           	addql #4,%sp
 2e4:	4297           	clrl %sp@
 2e6:	2f00           	movel %d0,%sp@-
 2e8:	4e92           	jsr %a2@
 2ea:	508f           	addql #8,%sp
 2ec:	2400           	movel %d0,%d2
 2ee:	2f0e           	movel %fp,%sp@-
 2f0:	2f06           	movel %d6,%sp@-
 2f2:	4e92           	jsr %a2@
 2f4:	508f           	addql #8,%sp
 2f6:	2800           	movel %d0,%d4
 2f8:	2f03           	movel %d3,%sp@-
 2fa:	2f07           	movel %d7,%sp@-
 2fc:	4e92           	jsr %a2@
 2fe:	588f           	addql #4,%sp
 300:	2e80           	movel %d0,%sp@
 302:	2f04           	movel %d4,%sp@-
 304:	4e95           	jsr %a5@
 306:	588f           	addql #4,%sp
 308:	4297           	clrl %sp@
 30a:	2f00           	movel %d0,%sp@-
 30c:	4e92           	jsr %a2@
 30e:	508f           	addql #8,%sp
 310:	2600           	movel %d0,%d3
 312:	2002           	movel %d2,%d0
 314:	2203           	movel %d3,%d1
 316:	4cdf 7cfc      	moveml %sp@+,%d2-%d7/%a2-%fp
 31a:	588f           	addql #4,%sp
 31c:	4e75           	rts
 31e:	2f05           	movel %d5,%sp@-
 320:	2f05           	movel %d5,%sp@-
 322:	4e95           	jsr %a5@
 324:	588f           	addql #4,%sp
 326:	2e80           	movel %d0,%sp@
 328:	2f00           	movel %d0,%sp@-
 32a:	4e94           	jsr %a4@
 32c:	508f           	addql #8,%sp
 32e:	4a80           	tstl %d0
 330:	6600 fecc      	bnew 1fe <___divsc3+0x1fe>
 334:	2f04           	movel %d4,%sp@-
 336:	2f04           	movel %d4,%sp@-
 338:	4e95           	jsr %a5@
 33a:	588f           	addql #4,%sp
 33c:	2e80           	movel %d0,%sp@
 33e:	2f00           	movel %d0,%sp@-
 340:	4e94           	jsr %a4@
 342:	508f           	addql #8,%sp
 344:	4a80           	tstl %d0
 346:	6600 feb6      	bnew 1fe <___divsc3+0x1fe>
 34a:	300e           	movew %fp,%d0
 34c:	4a00           	tstb %d0
 34e:	6600 00a6      	bnew 3f6 <___divsc3+0x3f6>
 352:	7600           	moveq #0,%d3
 354:	0883 001f      	bclr #31,%d3
 358:	4a87           	tstl %d7
 35a:	6c06           	bges 362 <___divsc3+0x362>
 35c:	0683 8000 0000 	addil #-2147483648,%d3
 362:	2f06           	movel %d6,%sp@-
 364:	2f06           	movel %d6,%sp@-
 366:	4e95           	jsr %a5@
 368:	588f           	addql #4,%sp
 36a:	2e80           	movel %d0,%sp@
 36c:	2f00           	movel %d0,%sp@-
 36e:	4e94           	jsr %a4@
 370:	508f           	addql #8,%sp
 372:	4a80           	tstl %d0
 374:	670c           	beqs 382 <___divsc3+0x382>
 376:	2f06           	movel %d6,%sp@-
 378:	2f06           	movel %d6,%sp@-
 37a:	4e94           	jsr %a4@
 37c:	508f           	addql #8,%sp
 37e:	4a80           	tstl %d0
 380:	676c           	beqs 3ee <___divsc3+0x3ee>
 382:	7e00           	moveq #0,%d7
 384:	0887 001f      	bclr #31,%d7
 388:	4a86           	tstl %d6
 38a:	6c06           	bges 392 <___divsc3+0x392>
 38c:	0687 8000 0000 	addil #-2147483648,%d7
 392:	2f05           	movel %d5,%sp@-
 394:	2f03           	movel %d3,%sp@-
 396:	4e92           	jsr %a2@
 398:	508f           	addql #8,%sp
 39a:	2400           	movel %d0,%d2
 39c:	2f04           	movel %d4,%sp@-
 39e:	2f07           	movel %d7,%sp@-
 3a0:	4e92           	jsr %a2@
 3a2:	588f           	addql #4,%sp
 3a4:	2e80           	movel %d0,%sp@
 3a6:	2f02           	movel %d2,%sp@-
 3a8:	4e93           	jsr %a3@
 3aa:	588f           	addql #4,%sp
 3ac:	2ebc 7f80 0000 	movel #2139095040,%sp@
 3b2:	2f00           	movel %d0,%sp@-
 3b4:	4e92           	jsr %a2@
 3b6:	508f           	addql #8,%sp
 3b8:	2400           	movel %d0,%d2
 3ba:	2f05           	movel %d5,%sp@-
 3bc:	2f07           	movel %d7,%sp@-
 3be:	4e92           	jsr %a2@
 3c0:	508f           	addql #8,%sp
 3c2:	2a00           	movel %d0,%d5
 3c4:	2f04           	movel %d4,%sp@-
 3c6:	2f03           	movel %d3,%sp@-
 3c8:	4e92           	jsr %a2@
 3ca:	588f           	addql #4,%sp
 3cc:	2e80           	movel %d0,%sp@
 3ce:	2f05           	movel %d5,%sp@-
 3d0:	4e95           	jsr %a5@
 3d2:	588f           	addql #4,%sp
 3d4:	2ebc 7f80 0000 	movel #2139095040,%sp@
 3da:	2f00           	movel %d0,%sp@-
 3dc:	4e92           	jsr %a2@
 3de:	508f           	addql #8,%sp
 3e0:	2600           	movel %d0,%d3
 3e2:	2002           	movel %d2,%d0
 3e4:	2203           	movel %d3,%d1
 3e6:	4cdf 7cfc      	moveml %sp@+,%d2-%d7/%a2-%fp
 3ea:	588f           	addql #4,%sp
 3ec:	4e75           	rts
 3ee:	2e3c 3f80 0000 	movel #1065353216,%d7
 3f4:	608e           	bras 384 <___divsc3+0x384>
 3f6:	263c 3f80 0000 	movel #1065353216,%d3
 3fc:	6000 ff56      	braw 354 <___divsc3+0x354>
 400:	2f07           	movel %d7,%sp@-
 402:	2f07           	movel %d7,%sp@-
 404:	4e95           	jsr %a5@
 406:	508f           	addql #8,%sp
 408:	2f40 002c      	movel %d0,%sp@(44)
 40c:	6000 fdf0      	braw 1fe <___divsc3+0x1fe>
 410:	203c 3f80 0000 	movel #1065353216,%d0
 416:	6000 fe6c      	braw 284 <___divsc3+0x284>
 41a:	263c 3f80 0000 	movel #1065353216,%d3
 420:	6000 fe9a      	braw 2bc <___divsc3+0x2bc>

_divdc3.o:     file format a.out-zero-big


Disassembly of section .text:

00000000 <___divdc3>:
   0:	4fef fff0      	lea %sp@(-16),%sp
   4:	48e7 3f3e      	moveml %d2-%d7/%a2-%fp,%sp@-
   8:	2c49           	moveal %a1,%fp
   a:	242f 0050      	movel %sp@(80),%d2
   e:	0882 001f      	bclr #31,%d2
  12:	202f 0054      	movel %sp@(84),%d0
  16:	2600           	movel %d0,%d3
  18:	202f 0058      	movel %sp@(88),%d0
  1c:	0880 001f      	bclr #31,%d0
  20:	206f 005c      	moveal %sp@(92),%a0
  24:	2f08           	movel %a0,%sp@-
  26:	2f00           	movel %d0,%sp@-
  28:	2f03           	movel %d3,%sp@-
  2a:	2f02           	movel %d2,%sp@-
  2c:	4eb9 0000 0000 	jsr 0 <___divdc3>
  32:	4fef 0010      	lea %sp@(16),%sp
  36:	45f9 0000 0000 	lea 0 <___divdc3>,%a2
  3c:	4a80           	tstl %d0
  3e:	6c00 00fc      	bgew 13c <___divdc3+0x13c>
  42:	2f2f 005c      	movel %sp@(92),%sp@-
  46:	2f2f 005c      	movel %sp@(92),%sp@-
  4a:	2f2f 005c      	movel %sp@(92),%sp@-
  4e:	2f2f 005c      	movel %sp@(92),%sp@-
  52:	4e92           	jsr %a2@
  54:	4fef 0010      	lea %sp@(16),%sp
  58:	2400           	movel %d0,%d2
  5a:	2601           	movel %d1,%d3
  5c:	47f9 0000 0000 	lea 0 <___divdc3>,%a3
  62:	2f01           	movel %d1,%sp@-
  64:	2f02           	movel %d2,%sp@-
  66:	2f2f 005c      	movel %sp@(92),%sp@-
  6a:	2f2f 005c      	movel %sp@(92),%sp@-
  6e:	4e93           	jsr %a3@
  70:	4fef 0010      	lea %sp@(16),%sp
  74:	4bf9 0000 0000 	lea 0 <___divdc3>,%a5
  7a:	2f2f 005c      	movel %sp@(92),%sp@-
  7e:	2f2f 005c      	movel %sp@(92),%sp@-
  82:	2f01           	movel %d1,%sp@-
  84:	2f00           	movel %d0,%sp@-
  86:	4e95           	jsr %a5@
  88:	4fef 0010      	lea %sp@(16),%sp
  8c:	2800           	movel %d0,%d4
  8e:	2a01           	movel %d1,%d5
  90:	2f03           	movel %d3,%sp@-
  92:	2f02           	movel %d2,%sp@-
  94:	2f2f 004c      	movel %sp@(76),%sp@-
  98:	2f2f 004c      	movel %sp@(76),%sp@-
  9c:	4e93           	jsr %a3@
  9e:	4fef 0010      	lea %sp@(16),%sp
  a2:	2f2f 004c      	movel %sp@(76),%sp@-
  a6:	2f2f 004c      	movel %sp@(76),%sp@-
  aa:	2f01           	movel %d1,%sp@-
  ac:	2f00           	movel %d0,%sp@-
  ae:	4e95           	jsr %a5@
  b0:	4fef 000c      	lea %sp@(12),%sp
  b4:	2e85           	movel %d5,%sp@
  b6:	2f04           	movel %d4,%sp@-
  b8:	2f01           	movel %d1,%sp@-
  ba:	2f00           	movel %d0,%sp@-
  bc:	4e92           	jsr %a2@
  be:	4fef 0010      	lea %sp@(16),%sp
  c2:	2040           	moveal %d0,%a0
  c4:	2008           	movel %a0,%d0
  c6:	2c00           	movel %d0,%d6
  c8:	2e01           	movel %d1,%d7
  ca:	2f03           	movel %d3,%sp@-
  cc:	2f02           	movel %d2,%sp@-
  ce:	2f2f 0054      	movel %sp@(84),%sp@-
  d2:	2f2f 0054      	movel %sp@(84),%sp@-
  d6:	4e93           	jsr %a3@
  d8:	4fef 0010      	lea %sp@(16),%sp
  dc:	243c 0000 0000 	movel #0,%d2
  e2:	2f2f 0044      	movel %sp@(68),%sp@-
  e6:	2f2f 0044      	movel %sp@(68),%sp@-
  ea:	2f01           	movel %d1,%sp@-
  ec:	2f00           	movel %d0,%sp@-
  ee:	2042           	moveal %d2,%a0
  f0:	4e90           	jsr %a0@
  f2:	4fef 000c      	lea %sp@(12),%sp
  f6:	2e85           	movel %d5,%sp@
  f8:	2f04           	movel %d4,%sp@-
  fa:	2f01           	movel %d1,%sp@-
  fc:	2f00           	movel %d0,%sp@-
  fe:	4e92           	jsr %a2@
 100:	4fef 0010      	lea %sp@(16),%sp
 104:	2800           	movel %d0,%d4
 106:	2a01           	movel %d1,%d5
 108:	49f9 0000 0000 	lea 0 <___divdc3>,%a4
 10e:	2f07           	movel %d7,%sp@-
 110:	2f06           	movel %d6,%sp@-
 112:	2f07           	movel %d7,%sp@-
 114:	2f06           	movel %d6,%sp@-
 116:	4e94           	jsr %a4@
 118:	4fef 0010      	lea %sp@(16),%sp
 11c:	4a80           	tstl %d0
 11e:	6600 00fc      	bnew 21c <___divdc3+0x21c>
 122:	2c86           	movel %d6,%fp@
 124:	2d47 0004      	movel %d7,%fp@(4)
 128:	2d44 0008      	movel %d4,%fp@(8)
 12c:	2d45 000c      	movel %d5,%fp@(12)
 130:	200e           	movel %fp,%d0
 132:	4cdf 7cfc      	moveml %sp@+,%d2-%d7/%a2-%fp
 136:	4fef 0010      	lea %sp@(16),%sp
 13a:	4e75           	rts
 13c:	2f2f 0054      	movel %sp@(84),%sp@-
 140:	2f2f 0054      	movel %sp@(84),%sp@-
 144:	2f2f 0064      	movel %sp@(100),%sp@-
 148:	2f2f 0064      	movel %sp@(100),%sp@-
 14c:	4e92           	jsr %a2@
 14e:	4fef 0010      	lea %sp@(16),%sp
 152:	2400           	movel %d0,%d2
 154:	2601           	movel %d1,%d3
 156:	47f9 0000 0000 	lea 0 <___divdc3>,%a3
 15c:	2f01           	movel %d1,%sp@-
 15e:	2f02           	movel %d2,%sp@-
 160:	2f2f 0064      	movel %sp@(100),%sp@-
 164:	2f2f 0064      	movel %sp@(100),%sp@-
 168:	4e93           	jsr %a3@
 16a:	4fef 0010      	lea %sp@(16),%sp
 16e:	4bf9 0000 0000 	lea 0 <___divdc3>,%a5
 174:	2f2f 0054      	movel %sp@(84),%sp@-
 178:	2f2f 0054      	movel %sp@(84),%sp@-
 17c:	2f01           	movel %d1,%sp@-
 17e:	2f00           	movel %d0,%sp@-
 180:	4e95           	jsr %a5@
 182:	4fef 0010      	lea %sp@(16),%sp
 186:	2800           	movel %d0,%d4
 188:	2a01           	movel %d1,%d5
 18a:	2f03           	movel %d3,%sp@-
 18c:	2f02           	movel %d2,%sp@-
 18e:	2f2f 0054      	movel %sp@(84),%sp@-
 192:	2f2f 0054      	movel %sp@(84),%sp@-
 196:	4e93           	jsr %a3@
 198:	4fef 0010      	lea %sp@(16),%sp
 19c:	2f2f 0044      	movel %sp@(68),%sp@-
 1a0:	2f2f 0044      	movel %sp@(68),%sp@-
 1a4:	2f01           	movel %d1,%sp@-
 1a6:	2f00           	movel %d0,%sp@-
 1a8:	4e95           	jsr %a5@
 1aa:	4fef 000c      	lea %sp@(12),%sp
 1ae:	2e85           	movel %d5,%sp@
 1b0:	2f04           	movel %d4,%sp@-
 1b2:	2f01           	movel %d1,%sp@-
 1b4:	2f00           	movel %d0,%sp@-
 1b6:	4e92           	jsr %a2@
 1b8:	4fef 0010      	lea %sp@(16),%sp
 1bc:	2040           	moveal %d0,%a0
 1be:	2008           	movel %a0,%d0
 1c0:	2c00           	movel %d0,%d6
 1c2:	2e01           	movel %d1,%d7
 1c4:	2f03           	movel %d3,%sp@-
 1c6:	2f02           	movel %d2,%sp@-
 1c8:	2f2f 004c      	movel %sp@(76),%sp@-
 1cc:	2f2f 004c      	movel %sp@(76),%sp@-
 1d0:	4e93           	jsr %a3@
 1d2:	4fef 0010      	lea %sp@(16),%sp
 1d6:	243c 0000 0000 	movel #0,%d2
 1dc:	2f01           	movel %d1,%sp@-
 1de:	2f00           	movel %d0,%sp@-
 1e0:	2f2f 0054      	movel %sp@(84),%sp@-
 1e4:	2f2f 0054      	movel %sp@(84),%sp@-
 1e8:	2042           	moveal %d2,%a0
 1ea:	4e90           	jsr %a0@
 1ec:	4fef 000c      	lea %sp@(12),%sp
 1f0:	2e85           	movel %d5,%sp@
 1f2:	2f04           	movel %d4,%sp@-
 1f4:	2f01           	movel %d1,%sp@-
 1f6:	2f00           	movel %d0,%sp@-
 1f8:	4e92           	jsr %a2@
 1fa:	4fef 0010      	lea %sp@(16),%sp
 1fe:	2800           	movel %d0,%d4
 200:	2a01           	movel %d1,%d5
 202:	49f9 0000 0000 	lea 0 <___divdc3>,%a4
 208:	2f07           	movel %d7,%sp@-
 20a:	2f06           	movel %d6,%sp@-
 20c:	2f07           	movel %d7,%sp@-
 20e:	2f06           	movel %d6,%sp@-
 210:	4e94           	jsr %a4@
 212:	4fef 0010      	lea %sp@(16),%sp
 216:	4a80           	tstl %d0
 218:	6700 ff08      	beqw 122 <___divdc3+0x122>
 21c:	2f05           	movel %d5,%sp@-
 21e:	2f04           	movel %d4,%sp@-
 220:	2f05           	movel %d5,%sp@-
 222:	2f04           	movel %d4,%sp@-
 224:	4e94           	jsr %a4@
 226:	4fef 0010      	lea %sp@(16),%sp
 22a:	4a80           	tstl %d0
 22c:	6700 fef4      	beqw 122 <___divdc3+0x122>
 230:	45f9 0000 0000 	lea 0 <___divdc3>,%a2
 236:	42a7           	clrl %sp@-
 238:	42a7           	clrl %sp@-
 23a:	2f2f 005c      	movel %sp@(92),%sp@-
 23e:	2f2f 005c      	movel %sp@(92),%sp@-
 242:	4e92           	jsr %a2@
 244:	4fef 0010      	lea %sp@(16),%sp
 248:	4a80           	tstl %d0
 24a:	6600 00ae      	bnew 2fa <___divdc3+0x2fa>
 24e:	42a7           	clrl %sp@-
 250:	42a7           	clrl %sp@-
 252:	2f2f 0064      	movel %sp@(100),%sp@-
 256:	2f2f 0064      	movel %sp@(100),%sp@-
 25a:	4e92           	jsr %a2@
 25c:	4fef 0010      	lea %sp@(16),%sp
 260:	4a80           	tstl %d0
 262:	6600 0096      	bnew 2fa <___divdc3+0x2fa>
 266:	2f2f 0044      	movel %sp@(68),%sp@-
 26a:	2f2f 0044      	movel %sp@(68),%sp@-
 26e:	2f2f 004c      	movel %sp@(76),%sp@-
 272:	2f2f 004c      	movel %sp@(76),%sp@-
 276:	4e94           	jsr %a4@
 278:	4fef 0010      	lea %sp@(16),%sp
 27c:	4a80           	tstl %d0
 27e:	671c           	beqs 29c <___divdc3+0x29c>
 280:	2f2f 004c      	movel %sp@(76),%sp@-
 284:	2f2f 004c      	movel %sp@(76),%sp@-
 288:	2f2f 0054      	movel %sp@(84),%sp@-
 28c:	2f2f 0054      	movel %sp@(84),%sp@-
 290:	4e94           	jsr %a4@
 292:	4fef 0010      	lea %sp@(16),%sp
 296:	4a80           	tstl %d0
 298:	6600 04aa      	bnew 744 <___divdc3+0x744>
 29c:	243c 7ff0 0000 	movel #2146435072,%d2
 2a2:	4283           	clrl %d3
 2a4:	202f 0050      	movel %sp@(80),%d0
 2a8:	6c08           	bges 2b2 <___divdc3+0x2b2>
 2aa:	243c fff0 0000 	movel #-1048576,%d2
 2b0:	4283           	clrl %d3
 2b2:	2f2f 0044      	movel %sp@(68),%sp@-
 2b6:	2f2f 0044      	movel %sp@(68),%sp@-
 2ba:	2f03           	movel %d3,%sp@-
 2bc:	2f02           	movel %d2,%sp@-
 2be:	4e93           	jsr %a3@
 2c0:	4fef 0010      	lea %sp@(16),%sp
 2c4:	2040           	moveal %d0,%a0
 2c6:	2c08           	movel %a0,%d6
 2c8:	2e01           	movel %d1,%d7
 2ca:	2f03           	movel %d3,%sp@-
 2cc:	2f02           	movel %d2,%sp@-
 2ce:	2f2f 0054      	movel %sp@(84),%sp@-
 2d2:	2f2f 0054      	movel %sp@(84),%sp@-
 2d6:	4e93           	jsr %a3@
 2d8:	4fef 0010      	lea %sp@(16),%sp
 2dc:	2800           	movel %d0,%d4
 2de:	2a01           	movel %d1,%d5
 2e0:	2c86           	movel %d6,%fp@
 2e2:	2d47 0004      	movel %d7,%fp@(4)
 2e6:	2d44 0008      	movel %d4,%fp@(8)
 2ea:	2d45 000c      	movel %d5,%fp@(12)
 2ee:	200e           	movel %fp,%d0
 2f0:	4cdf 7cfc      	moveml %sp@+,%d2-%d7/%a2-%fp
 2f4:	4fef 0010      	lea %sp@(16),%sp
 2f8:	4e75           	rts
 2fa:	2f2f 0044      	movel %sp@(68),%sp@-
 2fe:	2f2f 0044      	movel %sp@(68),%sp@-
 302:	2f2f 004c      	movel %sp@(76),%sp@-
 306:	2f2f 004c      	movel %sp@(76),%sp@-
 30a:	2042           	moveal %d2,%a0
 30c:	4e90           	jsr %a0@
 30e:	4fef 0010      	lea %sp@(16),%sp
 312:	2040           	moveal %d0,%a0
 314:	2241           	moveal %d1,%a1
 316:	2f48 0034      	movel %a0,%sp@(52)
 31a:	2f49 0038      	movel %a1,%sp@(56)
 31e:	2f01           	movel %d1,%sp@-
 320:	2f08           	movel %a0,%sp@-
 322:	2f01           	movel %d1,%sp@-
 324:	2f08           	movel %a0,%sp@-
 326:	4e94           	jsr %a4@
 328:	4fef 0010      	lea %sp@(16),%sp
 32c:	4a80           	tstl %d0
 32e:	56c3           	sne %d3
 330:	0203 0001      	andib #1,%d3
 334:	2f2f 0044      	movel %sp@(68),%sp@-
 338:	2f2f 0044      	movel %sp@(68),%sp@-
 33c:	2f2f 004c      	movel %sp@(76),%sp@-
 340:	2f2f 004c      	movel %sp@(76),%sp@-
 344:	4e94           	jsr %a4@
 346:	4fef 0010      	lea %sp@(16),%sp
 34a:	4a80           	tstl %d0
 34c:	57c0           	seq %d0
 34e:	4400           	negb %d0
 350:	c600           	andb %d0,%d3
 352:	6600 0268      	bnew 5bc <___divdc3+0x5bc>
 356:	2f2f 004c      	movel %sp@(76),%sp@-
 35a:	2f2f 004c      	movel %sp@(76),%sp@-
 35e:	2f2f 0054      	movel %sp@(84),%sp@-
 362:	2f2f 0054      	movel %sp@(84),%sp@-
 366:	2042           	moveal %d2,%a0
 368:	4e90           	jsr %a0@
 36a:	4fef 0010      	lea %sp@(16),%sp
 36e:	2040           	moveal %d0,%a0
 370:	2f01           	movel %d1,%sp@-
 372:	2f08           	movel %a0,%sp@-
 374:	2f01           	movel %d1,%sp@-
 376:	2f08           	movel %a0,%sp@-
 378:	4e94           	jsr %a4@
 37a:	4fef 0010      	lea %sp@(16),%sp
 37e:	4a80           	tstl %d0
 380:	671c           	beqs 39e <___divdc3+0x39e>
 382:	2f2f 004c      	movel %sp@(76),%sp@-
 386:	2f2f 004c      	movel %sp@(76),%sp@-
 38a:	2f2f 0054      	movel %sp@(84),%sp@-
 38e:	2f2f 0054      	movel %sp@(84),%sp@-
 392:	4e94           	jsr %a4@
 394:	4fef 0010      	lea %sp@(16),%sp
 398:	4a80           	tstl %d0
 39a:	6700 0220      	beqw 5bc <___divdc3+0x5bc>
 39e:	2f2f 0054      	movel %sp@(84),%sp@-
 3a2:	2f2f 0054      	movel %sp@(84),%sp@-
 3a6:	2f2f 005c      	movel %sp@(92),%sp@-
 3aa:	2f2f 005c      	movel %sp@(92),%sp@-
 3ae:	2042           	moveal %d2,%a0
 3b0:	4e90           	jsr %a0@
 3b2:	4fef 0010      	lea %sp@(16),%sp
 3b6:	2040           	moveal %d0,%a0
 3b8:	2f01           	movel %d1,%sp@-
 3ba:	2f08           	movel %a0,%sp@-
 3bc:	2f01           	movel %d1,%sp@-
 3be:	2f08           	movel %a0,%sp@-
 3c0:	4e94           	jsr %a4@
 3c2:	4fef 0010      	lea %sp@(16),%sp
 3c6:	4a80           	tstl %d0
 3c8:	56c3           	sne %d3
 3ca:	0203 0001      	andib #1,%d3
 3ce:	2f2f 0054      	movel %sp@(84),%sp@-
 3d2:	2f2f 0054      	movel %sp@(84),%sp@-
 3d6:	2f2f 005c      	movel %sp@(92),%sp@-
 3da:	2f2f 005c      	movel %sp@(92),%sp@-
 3de:	4e94           	jsr %a4@
 3e0:	4fef 0010      	lea %sp@(16),%sp
 3e4:	4a80           	tstl %d0
 3e6:	57c0           	seq %d0
 3e8:	4400           	negb %d0
 3ea:	c600           	andb %d0,%d3
 3ec:	664a           	bnes 438 <___divdc3+0x438>
 3ee:	2f2f 005c      	movel %sp@(92),%sp@-
 3f2:	2f2f 005c      	movel %sp@(92),%sp@-
 3f6:	2f2f 0064      	movel %sp@(100),%sp@-
 3fa:	2f2f 0064      	movel %sp@(100),%sp@-
 3fe:	2042           	moveal %d2,%a0
 400:	4e90           	jsr %a0@
 402:	4fef 0010      	lea %sp@(16),%sp
 406:	2040           	moveal %d0,%a0
 408:	2f01           	movel %d1,%sp@-
 40a:	2f08           	movel %a0,%sp@-
 40c:	2f01           	movel %d1,%sp@-
 40e:	2f08           	movel %a0,%sp@-
 410:	4e94           	jsr %a4@
 412:	4fef 0010      	lea %sp@(16),%sp
 416:	4a80           	tstl %d0
 418:	6700 fd08      	beqw 122 <___divdc3+0x122>
 41c:	2f2f 005c      	movel %sp@(92),%sp@-
 420:	2f2f 005c      	movel %sp@(92),%sp@-
 424:	2f2f 0064      	movel %sp@(100),%sp@-
 428:	2f2f 0064      	movel %sp@(100),%sp@-
 42c:	4e94           	jsr %a4@
 42e:	4fef 0010      	lea %sp@(16),%sp
 432:	4a80           	tstl %d0
 434:	6600 fcec      	bnew 122 <___divdc3+0x122>
 438:	2f2f 0038      	movel %sp@(56),%sp@-
 43c:	2f2f 0038      	movel %sp@(56),%sp@-
 440:	2f2f 0040      	movel %sp@(64),%sp@-
 444:	2f2f 0040      	movel %sp@(64),%sp@-
 448:	4e94           	jsr %a4@
 44a:	4fef 0010      	lea %sp@(16),%sp
 44e:	4a80           	tstl %d0
 450:	6600 fcd0      	bnew 122 <___divdc3+0x122>
 454:	2f2f 004c      	movel %sp@(76),%sp@-
 458:	2f2f 004c      	movel %sp@(76),%sp@-
 45c:	2f2f 0054      	movel %sp@(84),%sp@-
 460:	2f2f 0054      	movel %sp@(84),%sp@-
 464:	2042           	moveal %d2,%a0
 466:	4e90           	jsr %a0@
 468:	4fef 0010      	lea %sp@(16),%sp
 46c:	2040           	moveal %d0,%a0
 46e:	2f01           	movel %d1,%sp@-
 470:	2f08           	movel %a0,%sp@-
 472:	2f01           	movel %d1,%sp@-
 474:	2f08           	movel %a0,%sp@-
 476:	4e94           	jsr %a4@
 478:	4fef 0010      	lea %sp@(16),%sp
 47c:	4a80           	tstl %d0
 47e:	6600 fca2      	bnew 122 <___divdc3+0x122>
 482:	203c 3ff0 0000 	movel #1072693248,%d0
 488:	4a03           	tstb %d3
 48a:	6602           	bnes 48e <___divdc3+0x48e>
 48c:	7000           	moveq #0,%d0
 48e:	2800           	movel %d0,%d4
 490:	0884 001f      	bclr #31,%d4
 494:	7a00           	moveq #0,%d5
 496:	202f 0050      	movel %sp@(80),%d0
 49a:	6c06           	bges 4a2 <___divdc3+0x4a2>
 49c:	0684 8000 0000 	addil #-2147483648,%d4
 4a2:	2f2f 005c      	movel %sp@(92),%sp@-
 4a6:	2f2f 005c      	movel %sp@(92),%sp@-
 4aa:	2f2f 0064      	movel %sp@(100),%sp@-
 4ae:	2f2f 0064      	movel %sp@(100),%sp@-
 4b2:	2042           	moveal %d2,%a0
 4b4:	4e90           	jsr %a0@
 4b6:	4fef 0010      	lea %sp@(16),%sp
 4ba:	2040           	moveal %d0,%a0
 4bc:	2f01           	movel %d1,%sp@-
 4be:	2f08           	movel %a0,%sp@-
 4c0:	2f01           	movel %d1,%sp@-
 4c2:	2f08           	movel %a0,%sp@-
 4c4:	4e94           	jsr %a4@
 4c6:	4fef 0010      	lea %sp@(16),%sp
 4ca:	4a80           	tstl %d0
 4cc:	671c           	beqs 4ea <___divdc3+0x4ea>
 4ce:	2f2f 005c      	movel %sp@(92),%sp@-
 4d2:	2f2f 005c      	movel %sp@(92),%sp@-
 4d6:	2f2f 0064      	movel %sp@(100),%sp@-
 4da:	2f2f 0064      	movel %sp@(100),%sp@-
 4de:	4e94           	jsr %a4@
 4e0:	4fef 0010      	lea %sp@(16),%sp
 4e4:	4a80           	tstl %d0
 4e6:	6700 00ca      	beqw 5b2 <___divdc3+0x5b2>
 4ea:	7000           	moveq #0,%d0
 4ec:	0880 001f      	bclr #31,%d0
 4f0:	2040           	moveal %d0,%a0
 4f2:	93c9           	subal %a1,%a1
 4f4:	202f 0058      	movel %sp@(88),%d0
 4f8:	6c06           	bges 500 <___divdc3+0x500>
 4fa:	d1fc 8000 0000 	addal #-2147483648,%a0
 500:	2f05           	movel %d5,%sp@-
 502:	2f04           	movel %d4,%sp@-
 504:	2f2f 004c      	movel %sp@(76),%sp@-
 508:	2f2f 004c      	movel %sp@(76),%sp@-
 50c:	2f48 0040      	movel %a0,%sp@(64)
 510:	2f49 003c      	movel %a1,%sp@(60)
 514:	4e93           	jsr %a3@
 516:	4fef 0010      	lea %sp@(16),%sp
 51a:	2c00           	movel %d0,%d6
 51c:	2e01           	movel %d1,%d7
 51e:	206f 0030      	moveal %sp@(48),%a0
 522:	226f 002c      	moveal %sp@(44),%a1
 526:	2f09           	movel %a1,%sp@-
 528:	2f08           	movel %a0,%sp@-
 52a:	2f2f 0054      	movel %sp@(84),%sp@-
 52e:	2f2f 0054      	movel %sp@(84),%sp@-
 532:	2f48 0040      	movel %a0,%sp@(64)
 536:	2f49 003c      	movel %a1,%sp@(60)
 53a:	4e93           	jsr %a3@
 53c:	4fef 000c      	lea %sp@(12),%sp
 540:	2e81           	movel %d1,%sp@
 542:	2f00           	movel %d0,%sp@-
 544:	2f07           	movel %d7,%sp@-
 546:	2f06           	movel %d6,%sp@-
 548:	4e95           	jsr %a5@
 54a:	4fef 000c      	lea %sp@(12),%sp
 54e:	4297           	clrl %sp@
 550:	42a7           	clrl %sp@-
 552:	2f01           	movel %d1,%sp@-
 554:	2f00           	movel %d0,%sp@-
 556:	4e93           	jsr %a3@
 558:	4fef 0010      	lea %sp@(16),%sp
 55c:	2600           	movel %d0,%d3
 55e:	2003           	movel %d3,%d0
 560:	2c00           	movel %d0,%d6
 562:	2e01           	movel %d1,%d7
 564:	2f05           	movel %d5,%sp@-
 566:	2f04           	movel %d4,%sp@-
 568:	2f2f 0054      	movel %sp@(84),%sp@-
 56c:	2f2f 0054      	movel %sp@(84),%sp@-
 570:	4e93           	jsr %a3@
 572:	4fef 0010      	lea %sp@(16),%sp
 576:	2800           	movel %d0,%d4
 578:	2a01           	movel %d1,%d5
 57a:	206f 0030      	moveal %sp@(48),%a0
 57e:	226f 002c      	moveal %sp@(44),%a1
 582:	2f09           	movel %a1,%sp@-
 584:	2f08           	movel %a0,%sp@-
 586:	2f2f 004c      	movel %sp@(76),%sp@-
 58a:	2f2f 004c      	movel %sp@(76),%sp@-
 58e:	4e93           	jsr %a3@
 590:	4fef 000c      	lea %sp@(12),%sp
 594:	2e81           	movel %d1,%sp@
 596:	2f00           	movel %d0,%sp@-
 598:	2f05           	movel %d5,%sp@-
 59a:	2f04           	movel %d4,%sp@-
 59c:	2042           	moveal %d2,%a0
 59e:	4e90           	jsr %a0@
 5a0:	4fef 000c      	lea %sp@(12),%sp
 5a4:	4297           	clrl %sp@
 5a6:	42a7           	clrl %sp@-
 5a8:	2f01           	movel %d1,%sp@-
 5aa:	2f00           	movel %d0,%sp@-
 5ac:	4e93           	jsr %a3@
 5ae:	6000 fd28      	braw 2d8 <___divdc3+0x2d8>
 5b2:	203c 3ff0 0000 	movel #1072693248,%d0
 5b8:	6000 ff32      	braw 4ec <___divdc3+0x4ec>
 5bc:	2f2f 0054      	movel %sp@(84),%sp@-
 5c0:	2f2f 0054      	movel %sp@(84),%sp@-
 5c4:	2f2f 005c      	movel %sp@(92),%sp@-
 5c8:	2f2f 005c      	movel %sp@(92),%sp@-
 5cc:	2042           	moveal %d2,%a0
 5ce:	4e90           	jsr %a0@
 5d0:	4fef 0010      	lea %sp@(16),%sp
 5d4:	2040           	moveal %d0,%a0
 5d6:	2f01           	movel %d1,%sp@-
 5d8:	2f08           	movel %a0,%sp@-
 5da:	2f01           	movel %d1,%sp@-
 5dc:	2f08           	movel %a0,%sp@-
 5de:	4e94           	jsr %a4@
 5e0:	4fef 0010      	lea %sp@(16),%sp
 5e4:	4a80           	tstl %d0
 5e6:	6600 fdb6      	bnew 39e <___divdc3+0x39e>
 5ea:	2f2f 005c      	movel %sp@(92),%sp@-
 5ee:	2f2f 005c      	movel %sp@(92),%sp@-
 5f2:	2f2f 0064      	movel %sp@(100),%sp@-
 5f6:	2f2f 0064      	movel %sp@(100),%sp@-
 5fa:	2042           	moveal %d2,%a0
 5fc:	4e90           	jsr %a0@
 5fe:	4fef 0010      	lea %sp@(16),%sp
 602:	2040           	moveal %d0,%a0
 604:	2f01           	movel %d1,%sp@-
 606:	2f08           	movel %a0,%sp@-
 608:	2f01           	movel %d1,%sp@-
 60a:	2f08           	movel %a0,%sp@-
 60c:	4e94           	jsr %a4@
 60e:	4fef 0010      	lea %sp@(16),%sp
 612:	4a80           	tstl %d0
 614:	6600 fd88      	bnew 39e <___divdc3+0x39e>
 618:	203c 3ff0 0000 	movel #1072693248,%d0
 61e:	4a03           	tstb %d3
 620:	6602           	bnes 624 <___divdc3+0x624>
 622:	7000           	moveq #0,%d0
 624:	0880 001f      	bclr #31,%d0
 628:	2f40 0034      	movel %d0,%sp@(52)
 62c:	7000           	moveq #0,%d0
 62e:	2f40 0038      	movel %d0,%sp@(56)
 632:	202f 0040      	movel %sp@(64),%d0
 636:	6c0e           	bges 646 <___divdc3+0x646>
 638:	202f 0034      	movel %sp@(52),%d0
 63c:	0680 8000 0000 	addil #-2147483648,%d0
 642:	2f40 0034      	movel %d0,%sp@(52)
 646:	2f2f 004c      	movel %sp@(76),%sp@-
 64a:	2f2f 004c      	movel %sp@(76),%sp@-
 64e:	2f2f 0054      	movel %sp@(84),%sp@-
 652:	2f2f 0054      	movel %sp@(84),%sp@-
 656:	2042           	moveal %d2,%a0
 658:	4e90           	jsr %a0@
 65a:	4fef 0010      	lea %sp@(16),%sp
 65e:	2040           	moveal %d0,%a0
 660:	2f01           	movel %d1,%sp@-
 662:	2f08           	movel %a0,%sp@-
 664:	2f01           	movel %d1,%sp@-
 666:	2f08           	movel %a0,%sp@-
 668:	4e94           	jsr %a4@
 66a:	4fef 0010      	lea %sp@(16),%sp
 66e:	4a80           	tstl %d0
 670:	671c           	beqs 68e <___divdc3+0x68e>
 672:	2f2f 004c      	movel %sp@(76),%sp@-
 676:	2f2f 004c      	movel %sp@(76),%sp@-
 67a:	2f2f 0054      	movel %sp@(84),%sp@-
 67e:	2f2f 0054      	movel %sp@(84),%sp@-
 682:	4e94           	jsr %a4@
 684:	4fef 0010      	lea %sp@(16),%sp
 688:	4a80           	tstl %d0
 68a:	6700 00e0      	beqw 76c <___divdc3+0x76c>
 68e:	7000           	moveq #0,%d0
 690:	2800           	movel %d0,%d4
 692:	0884 001f      	bclr #31,%d4
 696:	7a00           	moveq #0,%d5
 698:	202f 0048      	movel %sp@(72),%d0
 69c:	6c06           	bges 6a4 <___divdc3+0x6a4>
 69e:	0684 8000 0000 	addil #-2147483648,%d4
 6a4:	2f2f 0054      	movel %sp@(84),%sp@-
 6a8:	2f2f 0054      	movel %sp@(84),%sp@-
 6ac:	2f2f 0040      	movel %sp@(64),%sp@-
 6b0:	2f2f 0040      	movel %sp@(64),%sp@-
 6b4:	4e93           	jsr %a3@
 6b6:	4fef 0010      	lea %sp@(16),%sp
 6ba:	2c00           	movel %d0,%d6
 6bc:	2e01           	movel %d1,%d7
 6be:	2f2f 005c      	movel %sp@(92),%sp@-
 6c2:	2f2f 005c      	movel %sp@(92),%sp@-
 6c6:	2f05           	movel %d5,%sp@-
 6c8:	2f04           	movel %d4,%sp@-
 6ca:	4e93           	jsr %a3@
 6cc:	4fef 000c      	lea %sp@(12),%sp
 6d0:	2e81           	movel %d1,%sp@
 6d2:	2f00           	movel %d0,%sp@-
 6d4:	2f07           	movel %d7,%sp@-
 6d6:	2f06           	movel %d6,%sp@-
 6d8:	4e95           	jsr %a5@
 6da:	4fef 000c      	lea %sp@(12),%sp
 6de:	4297           	clrl %sp@
 6e0:	2f3c 7ff0 0000 	movel #2146435072,%sp@-
 6e6:	2f01           	movel %d1,%sp@-
 6e8:	2f00           	movel %d0,%sp@-
 6ea:	4e93           	jsr %a3@
 6ec:	4fef 0010      	lea %sp@(16),%sp
 6f0:	2040           	moveal %d0,%a0
 6f2:	2c08           	movel %a0,%d6
 6f4:	2e01           	movel %d1,%d7
 6f6:	2f2f 0054      	movel %sp@(84),%sp@-
 6fa:	2f2f 0054      	movel %sp@(84),%sp@-
 6fe:	2f05           	movel %d5,%sp@-
 700:	2f04           	movel %d4,%sp@-
 702:	4e93           	jsr %a3@
 704:	4fef 0010      	lea %sp@(16),%sp
 708:	2800           	movel %d0,%d4
 70a:	2a01           	movel %d1,%d5
 70c:	2f2f 005c      	movel %sp@(92),%sp@-
 710:	2f2f 005c      	movel %sp@(92),%sp@-
 714:	2f2f 0040      	movel %sp@(64),%sp@-
 718:	2f2f 0040      	movel %sp@(64),%sp@-
 71c:	4e93           	jsr %a3@
 71e:	4fef 000c      	lea %sp@(12),%sp
 722:	2e81           	movel %d1,%sp@
 724:	2f00           	movel %d0,%sp@-
 726:	2f05           	movel %d5,%sp@-
 728:	2f04           	movel %d4,%sp@-
 72a:	2042           	moveal %d2,%a0
 72c:	4e90           	jsr %a0@
 72e:	4fef 000c      	lea %sp@(12),%sp
 732:	4297           	clrl %sp@
 734:	2f3c 7ff0 0000 	movel #2146435072,%sp@-
 73a:	2f01           	movel %d1,%sp@-
 73c:	2f00           	movel %d0,%sp@-
 73e:	4e93           	jsr %a3@
 740:	6000 fb96      	braw 2d8 <___divdc3+0x2d8>
 744:	2f2f 0044      	movel %sp@(68),%sp@-
 748:	2f2f 0044      	movel %sp@(68),%sp@-
 74c:	2f2f 004c      	movel %sp@(76),%sp@-
 750:	2f2f 004c      	movel %sp@(76),%sp@-
 754:	2042           	moveal %d2,%a0
 756:	4e90           	jsr %a0@
 758:	4fef 0010      	lea %sp@(16),%sp
 75c:	2040           	moveal %d0,%a0
 75e:	2008           	movel %a0,%d0
 760:	2f40 0034      	movel %d0,%sp@(52)
 764:	2f41 0038      	movel %d1,%sp@(56)
 768:	6000 fc34      	braw 39e <___divdc3+0x39e>
 76c:	203c 3ff0 0000 	movel #1072693248,%d0
 772:	6000 ff1c      	braw 690 <___divdc3+0x690>
	...

_divxc3.o:     file format a.out-zero-big


Disassembly of section .text:

00000000 <___divxc3-0x30>:
   0:	3fff           	.short 0x3fff
   2:	0000 8000      	orib #0,%d0
	...
  16:	0000 7fff      	orib #-1,%d0
  1a:	0000 8000      	orib #0,%d0
  1e:	0000 0000      	orib #0,%d0
  22:	0000 ffff      	orib #-1,%d0
  26:	0000 8000      	orib #0,%d0
  2a:	0000 0000      	orib #0,%d0
	...

00000030 <___divxc3>:
  30:	4fef ff84      	lea %sp@(-124),%sp
  34:	48e7 3f3e      	moveml %d2-%d7/%a2-%fp,%sp@-
  38:	2a49           	moveal %a1,%a5
  3a:	262f 00d0      	movel %sp@(208),%d3
  3e:	282f 00d4      	movel %sp@(212),%d4
  42:	2a2f 00d8      	movel %sp@(216),%d5
  46:	202f 00c4      	movel %sp@(196),%d0
  4a:	0880 001f      	bclr #31,%d0
  4e:	2c2f 00c8      	movel %sp@(200),%d6
  52:	2206           	movel %d6,%d1
  54:	206f 00cc      	moveal %sp@(204),%a0
  58:	2408           	movel %a0,%d2
  5a:	2c03           	movel %d3,%d6
  5c:	0886 001f      	bclr #31,%d6
  60:	2246           	moveal %d6,%a1
  62:	2444           	moveal %d4,%a2
  64:	2645           	moveal %d5,%a3
  66:	2f0b           	movel %a3,%sp@-
  68:	2f0a           	movel %a2,%sp@-
  6a:	2f09           	movel %a1,%sp@-
  6c:	2f02           	movel %d2,%sp@-
  6e:	2f01           	movel %d1,%sp@-
  70:	2f00           	movel %d0,%sp@-
  72:	4eb9 0000 0000 	jsr 0 <___divxc3-0x30>
  78:	4fef 0018      	lea %sp@(24),%sp
  7c:	2c3c 0000 0000 	movel #0,%d6
  82:	45ef 009c      	lea %sp@(156),%a2
  86:	4a80           	tstl %d0
  88:	6c00 01de      	bgew 268 <___divxc3+0x238>
  8c:	2f05           	movel %d5,%sp@-
  8e:	2f04           	movel %d4,%sp@-
  90:	2f03           	movel %d3,%sp@-
  92:	2f2f 00d8      	movel %sp@(216),%sp@-
  96:	2f2f 00d8      	movel %sp@(216),%sp@-
  9a:	2f2f 00d8      	movel %sp@(216),%sp@-
  9e:	224a           	moveal %a2,%a1
  a0:	2046           	moveal %d6,%a0
  a2:	4e90           	jsr %a0@
  a4:	4fef 0018      	lea %sp@(24),%sp
  a8:	2f6f 009c 003c 	movel %sp@(156),%sp@(60)
  ae:	2f6f 00a0 0040 	movel %sp@(160),%sp@(64)
  b4:	2f6f 00a4 0044 	movel %sp@(164),%sp@(68)
  ba:	47f9 0000 0000 	lea 0 <___divxc3-0x30>,%a3
  c0:	2f2f 0044      	movel %sp@(68),%sp@-
  c4:	2f2f 0044      	movel %sp@(68),%sp@-
  c8:	2f2f 0044      	movel %sp@(68),%sp@-
  cc:	2f2f 00d8      	movel %sp@(216),%sp@-
  d0:	2f2f 00d8      	movel %sp@(216),%sp@-
  d4:	2f2f 00d8      	movel %sp@(216),%sp@-
  d8:	224a           	moveal %a2,%a1
  da:	4e93           	jsr %a3@
  dc:	4fef 0018      	lea %sp@(24),%sp
  e0:	243c 0000 0000 	movel #0,%d2
  e6:	49ef 0090      	lea %sp@(144),%a4
  ea:	2f05           	movel %d5,%sp@-
  ec:	2f04           	movel %d4,%sp@-
  ee:	2f03           	movel %d3,%sp@-
  f0:	2f2f 00b0      	movel %sp@(176),%sp@-
  f4:	2f2f 00b0      	movel %sp@(176),%sp@-
  f8:	2f2f 00b0      	movel %sp@(176),%sp@-
  fc:	224c           	moveal %a4,%a1
  fe:	2042           	moveal %d2,%a0
 100:	4e90           	jsr %a0@
 102:	4fef 0018      	lea %sp@(24),%sp
 106:	2f6f 0090 0060 	movel %sp@(144),%sp@(96)
 10c:	2f6f 0094 0064 	movel %sp@(148),%sp@(100)
 112:	2f6f 0098 0068 	movel %sp@(152),%sp@(104)
 118:	2f2f 0044      	movel %sp@(68),%sp@-
 11c:	2f2f 0044      	movel %sp@(68),%sp@-
 120:	2f2f 0044      	movel %sp@(68),%sp@-
 124:	2f2f 00c0      	movel %sp@(192),%sp@-
 128:	2f2f 00c0      	movel %sp@(192),%sp@-
 12c:	2f2f 00c0      	movel %sp@(192),%sp@-
 130:	224a           	moveal %a2,%a1
 132:	4e93           	jsr %a3@
 134:	4fef 0018      	lea %sp@(24),%sp
 138:	2f2f 00c0      	movel %sp@(192),%sp@-
 13c:	2f2f 00c0      	movel %sp@(192),%sp@-
 140:	2f2f 00c0      	movel %sp@(192),%sp@-
 144:	2f2f 00b0      	movel %sp@(176),%sp@-
 148:	2f2f 00b0      	movel %sp@(176),%sp@-
 14c:	2f2f 00b0      	movel %sp@(176),%sp@-
 150:	224c           	moveal %a4,%a1
 152:	2042           	moveal %d2,%a0
 154:	4e90           	jsr %a0@
 156:	4fef 0018      	lea %sp@(24),%sp
 15a:	4def 0084      	lea %sp@(132),%fp
 15e:	2f2f 0068      	movel %sp@(104),%sp@-
 162:	2f2f 0068      	movel %sp@(104),%sp@-
 166:	2f2f 0068      	movel %sp@(104),%sp@-
 16a:	2f2f 00a4      	movel %sp@(164),%sp@-
 16e:	2f2f 00a4      	movel %sp@(164),%sp@-
 172:	2f2f 00a4      	movel %sp@(164),%sp@-
 176:	224e           	moveal %fp,%a1
 178:	2046           	moveal %d6,%a0
 17a:	4e90           	jsr %a0@
 17c:	4fef 0018      	lea %sp@(24),%sp
 180:	2f6f 0084 0048 	movel %sp@(132),%sp@(72)
 186:	2f6f 0088 004c 	movel %sp@(136),%sp@(76)
 18c:	2f6f 008c 0050 	movel %sp@(140),%sp@(80)
 192:	2f2f 0044      	movel %sp@(68),%sp@-
 196:	2f2f 0044      	movel %sp@(68),%sp@-
 19a:	2f2f 0044      	movel %sp@(68),%sp@-
 19e:	2f2f 00cc      	movel %sp@(204),%sp@-
 1a2:	2f2f 00cc      	movel %sp@(204),%sp@-
 1a6:	2f2f 00cc      	movel %sp@(204),%sp@-
 1aa:	224a           	moveal %a2,%a1
 1ac:	4e93           	jsr %a3@
 1ae:	4fef 0018      	lea %sp@(24),%sp
 1b2:	2e3c 0000 0000 	movel #0,%d7
 1b8:	2f2f 00b4      	movel %sp@(180),%sp@-
 1bc:	2f2f 00b4      	movel %sp@(180),%sp@-
 1c0:	2f2f 00b4      	movel %sp@(180),%sp@-
 1c4:	2f2f 00b0      	movel %sp@(176),%sp@-
 1c8:	2f2f 00b0      	movel %sp@(176),%sp@-
 1cc:	2f2f 00b0      	movel %sp@(176),%sp@-
 1d0:	224c           	moveal %a4,%a1
 1d2:	2047           	moveal %d7,%a0
 1d4:	4e90           	jsr %a0@
 1d6:	4fef 0018      	lea %sp@(24),%sp
 1da:	2f2f 0068      	movel %sp@(104),%sp@-
 1de:	2f2f 0068      	movel %sp@(104),%sp@-
 1e2:	2f2f 0068      	movel %sp@(104),%sp@-
 1e6:	2f2f 00a4      	movel %sp@(164),%sp@-
 1ea:	2f2f 00a4      	movel %sp@(164),%sp@-
 1ee:	2f2f 00a4      	movel %sp@(164),%sp@-
 1f2:	224e           	moveal %fp,%a1
 1f4:	2046           	moveal %d6,%a0
 1f6:	4e90           	jsr %a0@
 1f8:	4fef 0018      	lea %sp@(24),%sp
 1fc:	2f6f 0084 003c 	movel %sp@(132),%sp@(60)
 202:	2f6f 0088 0040 	movel %sp@(136),%sp@(64)
 208:	2f6f 008c 0044 	movel %sp@(140),%sp@(68)
 20e:	2c3c 0000 0000 	movel #0,%d6
 214:	2f2f 0050      	movel %sp@(80),%sp@-
 218:	2f2f 0050      	movel %sp@(80),%sp@-
 21c:	2f2f 0050      	movel %sp@(80),%sp@-
 220:	2f2f 005c      	movel %sp@(92),%sp@-
 224:	2f2f 005c      	movel %sp@(92),%sp@-
 228:	2f2f 005c      	movel %sp@(92),%sp@-
 22c:	2046           	moveal %d6,%a0
 22e:	4e90           	jsr %a0@
 230:	4fef 0018      	lea %sp@(24),%sp
 234:	4a80           	tstl %d0
 236:	6600 01de      	bnew 416 <___divxc3+0x3e6>
 23a:	2aaf 0048      	movel %sp@(72),%a5@
 23e:	2b6f 004c 0004 	movel %sp@(76),%a5@(4)
 244:	2b6f 0050 0008 	movel %sp@(80),%a5@(8)
 24a:	2b6f 003c 000c 	movel %sp@(60),%a5@(12)
 250:	2b6f 0040 0010 	movel %sp@(64),%a5@(16)
 256:	2b6f 0044 0014 	movel %sp@(68),%a5@(20)
 25c:	200d           	movel %a5,%d0
 25e:	4cdf 7cfc      	moveml %sp@+,%d2-%d7/%a2-%fp
 262:	4fef 007c      	lea %sp@(124),%sp
 266:	4e75           	rts
 268:	2f2f 00cc      	movel %sp@(204),%sp@-
 26c:	2f2f 00cc      	movel %sp@(204),%sp@-
 270:	2f2f 00cc      	movel %sp@(204),%sp@-
 274:	2f05           	movel %d5,%sp@-
 276:	2f04           	movel %d4,%sp@-
 278:	2f03           	movel %d3,%sp@-
 27a:	224a           	moveal %a2,%a1
 27c:	2046           	moveal %d6,%a0
 27e:	4e90           	jsr %a0@
 280:	4fef 0018      	lea %sp@(24),%sp
 284:	2f6f 009c 003c 	movel %sp@(156),%sp@(60)
 28a:	2f6f 00a0 0040 	movel %sp@(160),%sp@(64)
 290:	2f6f 00a4 0044 	movel %sp@(164),%sp@(68)
 296:	47f9 0000 0000 	lea 0 <___divxc3-0x30>,%a3
 29c:	2f2f 0044      	movel %sp@(68),%sp@-
 2a0:	2f2f 0044      	movel %sp@(68),%sp@-
 2a4:	2f2f 0044      	movel %sp@(68),%sp@-
 2a8:	2f05           	movel %d5,%sp@-
 2aa:	2f04           	movel %d4,%sp@-
 2ac:	2f03           	movel %d3,%sp@-
 2ae:	224a           	moveal %a2,%a1
 2b0:	4e93           	jsr %a3@
 2b2:	4fef 0018      	lea %sp@(24),%sp
 2b6:	243c 0000 0000 	movel #0,%d2
 2bc:	49ef 0090      	lea %sp@(144),%a4
 2c0:	2f2f 00cc      	movel %sp@(204),%sp@-
 2c4:	2f2f 00cc      	movel %sp@(204),%sp@-
 2c8:	2f2f 00cc      	movel %sp@(204),%sp@-
 2cc:	2f2f 00b0      	movel %sp@(176),%sp@-
 2d0:	2f2f 00b0      	movel %sp@(176),%sp@-
 2d4:	2f2f 00b0      	movel %sp@(176),%sp@-
 2d8:	224c           	moveal %a4,%a1
 2da:	2042           	moveal %d2,%a0
 2dc:	4e90           	jsr %a0@
 2de:	4fef 0018      	lea %sp@(24),%sp
 2e2:	2f6f 0090 0060 	movel %sp@(144),%sp@(96)
 2e8:	2f6f 0094 0064 	movel %sp@(148),%sp@(100)
 2ee:	2f6f 0098 0068 	movel %sp@(152),%sp@(104)
 2f4:	2f2f 0044      	movel %sp@(68),%sp@-
 2f8:	2f2f 0044      	movel %sp@(68),%sp@-
 2fc:	2f2f 0044      	movel %sp@(68),%sp@-
 300:	2f2f 00cc      	movel %sp@(204),%sp@-
 304:	2f2f 00cc      	movel %sp@(204),%sp@-
 308:	2f2f 00cc      	movel %sp@(204),%sp@-
 30c:	224a           	moveal %a2,%a1
 30e:	4e93           	jsr %a3@
 310:	4fef 0018      	lea %sp@(24),%sp
 314:	2f2f 00b4      	movel %sp@(180),%sp@-
 318:	2f2f 00b4      	movel %sp@(180),%sp@-
 31c:	2f2f 00b4      	movel %sp@(180),%sp@-
 320:	2f2f 00b0      	movel %sp@(176),%sp@-
 324:	2f2f 00b0      	movel %sp@(176),%sp@-
 328:	2f2f 00b0      	movel %sp@(176),%sp@-
 32c:	224c           	moveal %a4,%a1
 32e:	2042           	moveal %d2,%a0
 330:	4e90           	jsr %a0@
 332:	4fef 0018      	lea %sp@(24),%sp
 336:	4def 0084      	lea %sp@(132),%fp
 33a:	2f2f 0068      	movel %sp@(104),%sp@-
 33e:	2f2f 0068      	movel %sp@(104),%sp@-
 342:	2f2f 0068      	movel %sp@(104),%sp@-
 346:	2f2f 00a4      	movel %sp@(164),%sp@-
 34a:	2f2f 00a4      	movel %sp@(164),%sp@-
 34e:	2f2f 00a4      	movel %sp@(164),%sp@-
 352:	224e           	moveal %fp,%a1
 354:	2046           	moveal %d6,%a0
 356:	4e90           	jsr %a0@
 358:	4fef 0018      	lea %sp@(24),%sp
 35c:	2f6f 0084 0048 	movel %sp@(132),%sp@(72)
 362:	2f6f 0088 004c 	movel %sp@(136),%sp@(76)
 368:	2f6f 008c 0050 	movel %sp@(140),%sp@(80)
 36e:	2f2f 0044      	movel %sp@(68),%sp@-
 372:	2f2f 0044      	movel %sp@(68),%sp@-
 376:	2f2f 0044      	movel %sp@(68),%sp@-
 37a:	2f2f 00c0      	movel %sp@(192),%sp@-
 37e:	2f2f 00c0      	movel %sp@(192),%sp@-
 382:	2f2f 00c0      	movel %sp@(192),%sp@-
 386:	224a           	moveal %a2,%a1
 388:	4e93           	jsr %a3@
 38a:	4fef 0018      	lea %sp@(24),%sp
 38e:	2e3c 0000 0000 	movel #0,%d7
 394:	2f2f 00a4      	movel %sp@(164),%sp@-
 398:	2f2f 00a4      	movel %sp@(164),%sp@-
 39c:	2f2f 00a4      	movel %sp@(164),%sp@-
 3a0:	2f2f 00cc      	movel %sp@(204),%sp@-
 3a4:	2f2f 00cc      	movel %sp@(204),%sp@-
 3a8:	2f2f 00cc      	movel %sp@(204),%sp@-
 3ac:	224c           	moveal %a4,%a1
 3ae:	2047           	moveal %d7,%a0
 3b0:	4e90           	jsr %a0@
 3b2:	4fef 0018      	lea %sp@(24),%sp
 3b6:	2f2f 0068      	movel %sp@(104),%sp@-
 3ba:	2f2f 0068      	movel %sp@(104),%sp@-
 3be:	2f2f 0068      	movel %sp@(104),%sp@-
 3c2:	2f2f 00a4      	movel %sp@(164),%sp@-
 3c6:	2f2f 00a4      	movel %sp@(164),%sp@-
 3ca:	2f2f 00a4      	movel %sp@(164),%sp@-
 3ce:	224e           	moveal %fp,%a1
 3d0:	2046           	moveal %d6,%a0
